ARM GAS  /tmp/ccj8Icqh.s 			page 1


   1              		.cpu cortex-m4
   2              		.eabi_attribute 27, 1
   3              		.eabi_attribute 28, 1
   4              		.eabi_attribute 20, 1
   5              		.eabi_attribute 21, 1
   6              		.eabi_attribute 23, 3
   7              		.eabi_attribute 24, 1
   8              		.eabi_attribute 25, 1
   9              		.eabi_attribute 26, 1
  10              		.eabi_attribute 30, 2
  11              		.eabi_attribute 34, 1
  12              		.eabi_attribute 18, 4
  13              		.file	"main.c"
  14              		.text
  15              	.Ltext0:
  16              		.cfi_sections	.debug_frame
  17              		.section	.text.Get_Image,"ax",%progbits
  18              		.align	1
  19              		.p2align 4,,15
  20              		.global	Get_Image
  21              		.syntax unified
  22              		.thumb
  23              		.thumb_func
  24              		.fpu fpv4-sp-d16
  25              		.type	Get_Image, %function
  26              	Get_Image:
  27              	.LFB259:
  28              		.file 1 "main.c"
  29              		.loc 1 29 0
  30              		.cfi_startproc
  31              		@ args = 0, pretend = 0, frame = 8
  32              		@ frame_needed = 0, uses_anonymous_args = 0
  33 0000 2DE9F041 		push	{r4, r5, r6, r7, r8, lr}
  34              		.cfi_def_cfa_offset 24
  35              		.cfi_offset 4, -24
  36              		.cfi_offset 5, -20
  37              		.cfi_offset 6, -16
  38              		.cfi_offset 7, -12
  39              		.cfi_offset 8, -8
  40              		.cfi_offset 14, -4
  41 0004 1A4F     		ldr	r7, .L12
  42 0006 82B0     		sub	sp, sp, #8
  43              		.cfi_def_cfa_offset 32
  44              		.loc 1 29 0
  45 0008 3B68     		ldr	r3, [r7]
  46 000a 0193     		str	r3, [sp, #4]
  47              		.loc 1 31 0
  48 000c 4FF4F060 		mov	r0, #1920
  49 0010 FFF7FEFF 		bl	malloc
  50              	.LVL0:
  51 0014 00F58B58 		add	r8, r0, #4448
  52 0018 0646     		mov	r6, r0
  53              	.LVL1:
  54 001a 08F11C08 		add	r8, r8, #28
  55 001e 041F     		subs	r4, r0, #4
  56 0020 0546     		mov	r5, r0
  57              	.LVL2:
ARM GAS  /tmp/ccj8Icqh.s 			page 2


  58              	.L2:
  59              	.LBB2:
  60              		.loc 1 34 0 discriminator 3
  61 0022 4FF42060 		mov	r0, #2560
  62 0026 FFF7FEFF 		bl	malloc
  63              	.LVL3:
  64 002a 44F8040F 		str	r0, [r4, #4]!
  65              		.loc 1 33 0 discriminator 3
  66 002e 4445     		cmp	r4, r8
  67 0030 F7D1     		bne	.L2
  68              	.LBE2:
  69              		.loc 1 36 0
  70 0032 FFF7FEFF 		bl	cam_get_last_image_ptr
  71              	.LVL4:
  72 0036 06F5F06C 		add	ip, r6, #1920
  73 003a 0138     		subs	r0, r0, #1
  74              	.LVL5:
  75              	.L3:
  76              		.loc 1 29 0
  77 003c 0246     		mov	r2, r0
  78 003e 0023     		movs	r3, #0
  79              	.LVL6:
  80              	.L4:
  81              	.LBB3:
  82              	.LBB4:
  83              		.loc 1 41 0 discriminator 3
  84 0040 2968     		ldr	r1, [r5]
  85 0042 12F8014F 		ldrb	r4, [r2, #1]!	@ zero_extendqisi2
  86 0046 CC50     		str	r4, [r1, r3]
  87 0048 0433     		adds	r3, r3, #4
  88              		.loc 1 39 0 discriminator 3
  89 004a B3F5206F 		cmp	r3, #2560
  90 004e F7D1     		bne	.L4
  91 0050 0435     		adds	r5, r5, #4
  92              	.LBE4:
  93              		.loc 1 38 0 discriminator 2
  94 0052 AC45     		cmp	ip, r5
  95 0054 00F52070 		add	r0, r0, #640
  96 0058 F0D1     		bne	.L3
  97              	.LBE3:
  98              		.loc 1 46 0
  99 005a 019A     		ldr	r2, [sp, #4]
 100 005c 3B68     		ldr	r3, [r7]
 101 005e 9A42     		cmp	r2, r3
 102 0060 3046     		mov	r0, r6
 103 0062 02D1     		bne	.L11
 104              	.LVL7:
 105 0064 02B0     		add	sp, sp, #8
 106              		.cfi_remember_state
 107              		.cfi_def_cfa_offset 24
 108              		@ sp needed
 109 0066 BDE8F081 		pop	{r4, r5, r6, r7, r8, pc}
 110              	.L11:
 111              		.cfi_restore_state
 112 006a FFF7FEFF 		bl	__stack_chk_fail
 113              	.LVL8:
 114              	.L13:
ARM GAS  /tmp/ccj8Icqh.s 			page 3


 115 006e 00BF     		.align	2
 116              	.L12:
 117 0070 00000000 		.word	__stack_chk_guard
 118              		.cfi_endproc
 119              	.LFE259:
 120              		.size	Get_Image, .-Get_Image
 121              		.section	.text.Face_Object,"ax",%progbits
 122              		.align	1
 123              		.p2align 4,,15
 124              		.global	Face_Object
 125              		.syntax unified
 126              		.thumb
 127              		.thumb_func
 128              		.fpu fpv4-sp-d16
 129              		.type	Face_Object, %function
 130              	Face_Object:
 131              	.LFB260:
 132              		.loc 1 49 0
 133              		.cfi_startproc
 134              		@ args = 0, pretend = 0, frame = 8
 135              		@ frame_needed = 0, uses_anonymous_args = 0
 136 0000 2DE9F043 		push	{r4, r5, r6, r7, r8, r9, lr}
 137              		.cfi_def_cfa_offset 28
 138              		.cfi_offset 4, -28
 139              		.cfi_offset 5, -24
 140              		.cfi_offset 6, -20
 141              		.cfi_offset 7, -16
 142              		.cfi_offset 8, -12
 143              		.cfi_offset 9, -8
 144              		.cfi_offset 14, -4
 145 0004 294C     		ldr	r4, .L30
 146              		.loc 1 55 0
 147 0006 2A4D     		ldr	r5, .L30+4
 148              		.loc 1 49 0
 149 0008 2368     		ldr	r3, [r4]
 150 000a 83B0     		sub	sp, sp, #12
 151              		.cfi_def_cfa_offset 40
 152              		.loc 1 54 0
 153 000c 0027     		movs	r7, #0
 154              		.loc 1 49 0
 155 000e 0193     		str	r3, [sp, #4]
 156              	.LVL9:
 157              		.loc 1 51 0
 158 0010 FFF7FEFF 		bl	Get_Image
 159              	.LVL10:
 160              	.LBB5:
 161              	.LBB6:
 162              		.loc 1 59 0
 163 0014 40F28126 		movw	r6, #641
 164 0018 A0F1040C 		sub	ip, r0, #4
 165 001c 00F5F06E 		add	lr, r0, #1920
 166              	.LVL11:
 167              	.L15:
 168 0020 5CF8040F 		ldr	r0, [ip, #4]!
 169 0024 0021     		movs	r1, #0
 170 0026 0438     		subs	r0, r0, #4
 171              	.LVL12:
ARM GAS  /tmp/ccj8Icqh.s 			page 4


 172              	.L17:
 173              	.LBB7:
 174              		.loc 1 60 0
 175 0028 50F8043F 		ldr	r3, [r0, #4]!
 176              	.LVL13:
 177              		.loc 1 61 0
 178 002c 5A01     		lsls	r2, r3, #5
 179 002e D2B2     		uxtb	r2, r2
 180              	.LVL14:
 181              		.loc 1 60 0
 182 0030 03F0F808 		and	r8, r3, #248
 183              	.LVL15:
 184              		.loc 1 64 0
 185 0034 02FB02F9 		mul	r9, r2, r2
 186              		.loc 1 63 0
 187 0038 DB00     		lsls	r3, r3, #3
 188              		.loc 1 64 0
 189 003a A8F1FF02 		sub	r2, r8, #255
 190              	.LVL16:
 191 003e 02FB0292 		mla	r2, r2, r2, r9
 192              		.loc 1 63 0
 193 0042 DBB2     		uxtb	r3, r3
 194              	.LVL17:
 195              		.loc 1 64 0
 196 0044 03FB0323 		mla	r3, r3, r3, r2
 197              	.LVL18:
 198              		.loc 1 66 0
 199 0048 AB42     		cmp	r3, r5
 200 004a B8BF     		it	lt
 201 004c 0F46     		movlt	r7, r1
 202              	.LBE7:
 203              		.loc 1 59 0
 204 004e 01F10101 		add	r1, r1, #1
 205              	.LVL19:
 206              	.LBB8:
 207              		.loc 1 66 0
 208 0052 B8BF     		it	lt
 209 0054 1D46     		movlt	r5, r3
 210              	.LVL20:
 211              	.LBE8:
 212              		.loc 1 59 0
 213 0056 B142     		cmp	r1, r6
 214 0058 E6D1     		bne	.L17
 215              	.LBE6:
 216              		.loc 1 58 0 discriminator 2
 217 005a E645     		cmp	lr, ip
 218 005c E0D1     		bne	.L15
 219              	.LVL21:
 220              	.LBE5:
 221              		.loc 1 77 0
 222 005e FF2F     		cmp	r7, #255
 223 0060 09DD     		ble	.L28
 224              		.loc 1 82 0
 225 0062 B7F5C07F 		cmp	r7, #384
 226 0066 15DC     		bgt	.L29
 227              		.loc 1 88 0
 228 0068 019A     		ldr	r2, [sp, #4]
ARM GAS  /tmp/ccj8Icqh.s 			page 5


 229 006a 2368     		ldr	r3, [r4]
 230              	.LVL22:
 231 006c 9A42     		cmp	r2, r3
 232 006e 1BD1     		bne	.L27
 233 0070 03B0     		add	sp, sp, #12
 234              		.cfi_remember_state
 235              		.cfi_def_cfa_offset 28
 236              		@ sp needed
 237 0072 BDE8F083 		pop	{r4, r5, r6, r7, r8, r9, pc}
 238              	.LVL23:
 239              	.L28:
 240              		.cfi_restore_state
 241              		.loc 1 78 0
 242 0076 6FF0C700 		mvn	r0, #199
 243              	.LVL24:
 244 007a FFF7FEFF 		bl	left_motor_set_speed
 245              	.LVL25:
 246              		.loc 1 79 0
 247 007e 019A     		ldr	r2, [sp, #4]
 248 0080 2368     		ldr	r3, [r4]
 249 0082 9A42     		cmp	r2, r3
 250 0084 08BF     		it	eq
 251 0086 C820     		moveq	r0, #200
 252 0088 0ED1     		bne	.L27
 253              	.L26:
 254              		.loc 1 88 0
 255 008a 03B0     		add	sp, sp, #12
 256              		.cfi_remember_state
 257              		.cfi_def_cfa_offset 28
 258              		@ sp needed
 259 008c BDE8F043 		pop	{r4, r5, r6, r7, r8, r9, lr}
 260              		.cfi_restore 14
 261              		.cfi_restore 9
 262              		.cfi_restore 8
 263              		.cfi_restore 7
 264              		.cfi_restore 6
 265              		.cfi_restore 5
 266              		.cfi_restore 4
 267              		.cfi_def_cfa_offset 0
 268              	.LVL26:
 269              		.loc 1 84 0
 270 0090 FFF7FEBF 		b	right_motor_set_speed
 271              	.LVL27:
 272              	.L29:
 273              		.cfi_restore_state
 274              		.loc 1 83 0
 275 0094 C820     		movs	r0, #200
 276              	.LVL28:
 277 0096 FFF7FEFF 		bl	left_motor_set_speed
 278              	.LVL29:
 279              		.loc 1 84 0
 280 009a 019A     		ldr	r2, [sp, #4]
 281 009c 2368     		ldr	r3, [r4]
 282 009e 9A42     		cmp	r2, r3
 283 00a0 08BF     		it	eq
 284 00a2 6FF0C700 		mvneq	r0, #199
 285 00a6 F0D0     		beq	.L26
ARM GAS  /tmp/ccj8Icqh.s 			page 6


 286              	.L27:
 287              		.loc 1 88 0
 288 00a8 FFF7FEFF 		bl	__stack_chk_fail
 289              	.LVL30:
 290              	.L31:
 291              		.align	2
 292              	.L30:
 293 00ac 00000000 		.word	__stack_chk_guard
 294 00b0 40420F00 		.word	1000000
 295              		.cfi_endproc
 296              	.LFE260:
 297              		.size	Face_Object, .-Face_Object
 298              		.section	.text.Follow_Object,"ax",%progbits
 299              		.align	1
 300              		.p2align 4,,15
 301              		.global	Follow_Object
 302              		.syntax unified
 303              		.thumb
 304              		.thumb_func
 305              		.fpu fpv4-sp-d16
 306              		.type	Follow_Object, %function
 307              	Follow_Object:
 308              	.LFB261:
 309              		.loc 1 90 0
 310              		.cfi_startproc
 311              		@ args = 0, pretend = 0, frame = 8
 312              		@ frame_needed = 0, uses_anonymous_args = 0
 313 0000 10B5     		push	{r4, lr}
 314              		.cfi_def_cfa_offset 8
 315              		.cfi_offset 4, -8
 316              		.cfi_offset 14, -4
 317 0002 214C     		ldr	r4, .L46
 318 0004 82B0     		sub	sp, sp, #8
 319              		.cfi_def_cfa_offset 16
 320              		.loc 1 90 0
 321 0006 2368     		ldr	r3, [r4]
 322 0008 0193     		str	r3, [sp, #4]
 323              	.LVL31:
 324              		.loc 1 92 0
 325 000a FFF7FEFF 		bl	VL53L0X_get_dist_mm
 326              	.LVL32:
 327 000e 3128     		cmp	r0, #49
 328 0010 03D9     		bls	.L33
 329              		.loc 1 92 0 is_stmt 0 discriminator 1
 330 0012 FFF7FEFF 		bl	VL53L0X_get_dist_mm
 331              	.LVL33:
 332 0016 6428     		cmp	r0, #100
 333 0018 1DD9     		bls	.L43
 334              	.L33:
 335              		.loc 1 95 0 is_stmt 1
 336 001a FFF7FEFF 		bl	VL53L0X_get_dist_mm
 337              	.LVL34:
 338 001e 6428     		cmp	r0, #100
 339 0020 09D8     		bhi	.L44
 340              		.loc 1 98 0
 341 0022 FFF7FEFF 		bl	VL53L0X_get_dist_mm
 342              	.LVL35:
ARM GAS  /tmp/ccj8Icqh.s 			page 7


 343 0026 3128     		cmp	r0, #49
 344 0028 20D9     		bls	.L45
 345              		.loc 1 102 0
 346 002a 019A     		ldr	r2, [sp, #4]
 347 002c 2368     		ldr	r3, [r4]
 348 002e 9A42     		cmp	r2, r3
 349 0030 1AD1     		bne	.L42
 350 0032 02B0     		add	sp, sp, #8
 351              		.cfi_remember_state
 352              		.cfi_def_cfa_offset 8
 353              		@ sp needed
 354 0034 10BD     		pop	{r4, pc}
 355              	.L44:
 356              		.cfi_restore_state
 357              		.loc 1 96 0
 358 0036 4FF4FA70 		mov	r0, #500
 359 003a FFF7FEFF 		bl	left_motor_set_speed
 360              	.LVL36:
 361              		.loc 1 97 0
 362 003e 019A     		ldr	r2, [sp, #4]
 363 0040 2368     		ldr	r3, [r4]
 364 0042 9A42     		cmp	r2, r3
 365 0044 08BF     		it	eq
 366 0046 4FF4FA70 		moveq	r0, #500
 367 004a 0DD1     		bne	.L42
 368              	.L41:
 369              		.loc 1 102 0
 370 004c 02B0     		add	sp, sp, #8
 371              		.cfi_remember_state
 372              		.cfi_def_cfa_offset 8
 373              		@ sp needed
 374 004e BDE81040 		pop	{r4, lr}
 375              		.cfi_restore 14
 376              		.cfi_restore 4
 377              		.cfi_def_cfa_offset 0
 378              		.loc 1 100 0
 379 0052 FFF7FEBF 		b	right_motor_set_speed
 380              	.LVL37:
 381              	.L43:
 382              		.cfi_restore_state
 383              	.LBB11:
 384              	.LBB12:
 385              		.loc 1 93 0
 386 0056 0020     		movs	r0, #0
 387 0058 FFF7FEFF 		bl	left_motor_set_speed
 388              	.LVL38:
 389              		.loc 1 94 0
 390 005c 019A     		ldr	r2, [sp, #4]
 391 005e 2368     		ldr	r3, [r4]
 392 0060 9A42     		cmp	r2, r3
 393 0062 08BF     		it	eq
 394 0064 0020     		moveq	r0, #0
 395 0066 F1D0     		beq	.L41
 396              	.L42:
 397              	.LBE12:
 398              	.LBE11:
 399              		.loc 1 102 0
ARM GAS  /tmp/ccj8Icqh.s 			page 8


 400 0068 FFF7FEFF 		bl	__stack_chk_fail
 401              	.LVL39:
 402              	.L45:
 403              		.loc 1 99 0
 404 006c 0748     		ldr	r0, .L46+4
 405 006e FFF7FEFF 		bl	left_motor_set_speed
 406              	.LVL40:
 407              		.loc 1 100 0
 408 0072 019A     		ldr	r2, [sp, #4]
 409 0074 2368     		ldr	r3, [r4]
 410 0076 9A42     		cmp	r2, r3
 411 0078 F6D1     		bne	.L42
 412 007a 0448     		ldr	r0, .L46+4
 413              		.loc 1 102 0
 414 007c 02B0     		add	sp, sp, #8
 415              		.cfi_def_cfa_offset 8
 416              		@ sp needed
 417 007e BDE81040 		pop	{r4, lr}
 418              		.cfi_restore 14
 419              		.cfi_restore 4
 420              		.cfi_def_cfa_offset 0
 421              		.loc 1 100 0
 422 0082 FFF7FEBF 		b	right_motor_set_speed
 423              	.LVL41:
 424              	.L47:
 425 0086 00BF     		.align	2
 426              	.L46:
 427 0088 00000000 		.word	__stack_chk_guard
 428 008c 0CFEFFFF 		.word	-500
 429              		.cfi_endproc
 430              	.LFE261:
 431              		.size	Follow_Object, .-Follow_Object
 432              		.section	.text.Turn_Puck,"ax",%progbits
 433              		.align	1
 434              		.p2align 4,,15
 435              		.global	Turn_Puck
 436              		.syntax unified
 437              		.thumb
 438              		.thumb_func
 439              		.fpu fpv4-sp-d16
 440              		.type	Turn_Puck, %function
 441              	Turn_Puck:
 442              	.LFB262:
 443              		.loc 1 103 0
 444              		.cfi_startproc
 445              		@ args = 0, pretend = 0, frame = 8
 446              		@ frame_needed = 0, uses_anonymous_args = 0
 447              	.LVL42:
 448 0000 30B5     		push	{r4, r5, lr}
 449              		.cfi_def_cfa_offset 12
 450              		.cfi_offset 4, -12
 451              		.cfi_offset 5, -8
 452              		.cfi_offset 14, -4
 453 0002 1B4C     		ldr	r4, .L63
 454 0004 83B0     		sub	sp, sp, #12
 455              		.cfi_def_cfa_offset 24
 456              		.loc 1 103 0
ARM GAS  /tmp/ccj8Icqh.s 			page 9


 457 0006 2368     		ldr	r3, [r4]
 458 0008 0193     		str	r3, [sp, #4]
 459              		.loc 1 104 0
 460 000a 0138     		subs	r0, r0, #1
 461              	.LVL43:
 462              		.loc 1 103 0
 463 000c 0D46     		mov	r5, r1
 464              		.loc 1 104 0
 465 000e 0528     		cmp	r0, #5
 466 0010 26D8     		bhi	.L48
 467 0012 DFE800F0 		tbb	[pc, r0]
 468              	.L51:
 469 0016 1F       		.byte	(.L50-.L51)/2
 470 0017 1A       		.byte	(.L52-.L51)/2
 471 0018 1A       		.byte	(.L52-.L51)/2
 472 0019 15       		.byte	(.L53-.L51)/2
 473 001a 15       		.byte	(.L53-.L51)/2
 474 001b 03       		.byte	(.L54-.L51)/2
 475              		.p2align 1
 476              	.L54:
 477              		.loc 1 122 0
 478 001c 6FF04A00 		mvn	r0, #74
 479              	.LVL44:
 480 0020 FFF7FEFF 		bl	left_motor_set_speed
 481              	.LVL45:
 482              		.loc 1 123 0
 483 0024 4B20     		movs	r0, #75
 484              	.L62:
 485              		.loc 1 130 0
 486 0026 FFF7FEFF 		bl	right_motor_set_speed
 487              	.LVL46:
 488              		.loc 1 131 0
 489 002a 019A     		ldr	r2, [sp, #4]
 490 002c 2368     		ldr	r3, [r4]
 491 002e 9A42     		cmp	r2, r3
 492 0030 1CD1     		bne	.L61
 493 0032 4FF4FA70 		mov	r0, #500
 494              		.loc 1 138 0
 495 0036 03B0     		add	sp, sp, #12
 496              		.cfi_remember_state
 497              		.cfi_def_cfa_offset 12
 498              		@ sp needed
 499 0038 BDE83040 		pop	{r4, r5, lr}
 500              		.cfi_restore 14
 501              		.cfi_restore 5
 502              		.cfi_restore 4
 503              		.cfi_def_cfa_offset 0
 504              	.LVL47:
 505              		.loc 1 131 0
 506 003c FFF7FEBF 		b	chThdSleep
 507              	.LVL48:
 508              	.L53:
 509              		.cfi_restore_state
 510              		.loc 1 129 0
 511 0040 4842     		negs	r0, r1
 512 0042 FFF7FEFF 		bl	left_motor_set_speed
 513              	.LVL49:
ARM GAS  /tmp/ccj8Icqh.s 			page 10


 514              		.loc 1 130 0
 515 0046 2846     		mov	r0, r5
 516 0048 EDE7     		b	.L62
 517              	.LVL50:
 518              	.L52:
 519              	.LBB15:
 520              	.LBB16:
 521              		.loc 1 114 0
 522 004a 0846     		mov	r0, r1
 523 004c FFF7FEFF 		bl	left_motor_set_speed
 524              	.LVL51:
 525              		.loc 1 115 0
 526 0050 6842     		negs	r0, r5
 527 0052 E8E7     		b	.L62
 528              	.LVL52:
 529              	.L50:
 530              	.LBE16:
 531              	.LBE15:
 532              		.loc 1 108 0
 533 0054 4B20     		movs	r0, #75
 534 0056 FFF7FEFF 		bl	left_motor_set_speed
 535              	.LVL53:
 536              		.loc 1 109 0
 537 005a 6FF04A00 		mvn	r0, #74
 538 005e E2E7     		b	.L62
 539              	.LVL54:
 540              	.L48:
 541              		.loc 1 138 0
 542 0060 019A     		ldr	r2, [sp, #4]
 543 0062 2368     		ldr	r3, [r4]
 544 0064 9A42     		cmp	r2, r3
 545 0066 01D1     		bne	.L61
 546 0068 03B0     		add	sp, sp, #12
 547              		@ sp needed
 548 006a 30BD     		pop	{r4, r5, pc}
 549              	.LVL55:
 550              	.L61:
 551 006c FFF7FEFF 		bl	__stack_chk_fail
 552              	.LVL56:
 553              	.L64:
 554              		.align	2
 555              	.L63:
 556 0070 00000000 		.word	__stack_chk_guard
 557              		.cfi_endproc
 558              	.LFE262:
 559              		.size	Turn_Puck, .-Turn_Puck
 560              		.section	.text.startup.main,"ax",%progbits
 561              		.align	1
 562              		.p2align 4,,15
 563              		.global	main
 564              		.syntax unified
 565              		.thumb
 566              		.thumb_func
 567              		.fpu fpv4-sp-d16
 568              		.type	main, %function
 569              	main:
 570              	.LFB263:
ARM GAS  /tmp/ccj8Icqh.s 			page 11


 571              		.loc 1 140 0
 572              		.cfi_startproc
 573              		@ args = 0, pretend = 0, frame = 104
 574              		@ frame_needed = 0, uses_anonymous_args = 0
 575 0000 F0B5     		push	{r4, r5, r6, r7, lr}
 576              		.cfi_def_cfa_offset 20
 577              		.cfi_offset 4, -20
 578              		.cfi_offset 5, -16
 579              		.cfi_offset 6, -12
 580              		.cfi_offset 7, -8
 581              		.cfi_offset 14, -4
 582 0002 304B     		ldr	r3, .L85
 583              	.LBB17:
 584              		.loc 1 178 0
 585 0004 304E     		ldr	r6, .L85+4
 586              	.LBE17:
 587              		.loc 1 140 0
 588 0006 1B68     		ldr	r3, [r3]
 589              		.loc 1 191 0
 590 0008 304F     		ldr	r7, .L85+8
 591              		.loc 1 140 0
 592 000a 9BB0     		sub	sp, sp, #108
 593              		.cfi_def_cfa_offset 128
 594              		.loc 1 140 0
 595 000c 1993     		str	r3, [sp, #100]
 596              		.loc 1 141 0
 597 000e FFF7FEFF 		bl	halInit
 598              	.LVL57:
 599              		.loc 1 142 0
 600 0012 FFF7FEFF 		bl	chSysInit
 601              	.LVL58:
 602              		.loc 1 143 0
 603 0016 FFF7FEFF 		bl	mpu_init
 604              	.LVL59:
 605              		.loc 1 145 0
 606 001a 2D4A     		ldr	r2, .L85+12
 607 001c 2D49     		ldr	r1, .L85+16
 608 001e 2E48     		ldr	r0, .L85+20
 609 0020 FFF7FEFF 		bl	messagebus_init
 610              	.LVL60:
 611              		.loc 1 146 0
 612 0024 FFF7FEFF 		bl	proximity_start
 613              	.LVL61:
 614              		.loc 1 147 0
 615 0028 FFF7FEFF 		bl	calibrate_ir
 616              	.LVL62:
 617              		.loc 1 148 0
 618 002c FFF7FEFF 		bl	motors_init
 619              	.LVL63:
 620              		.loc 1 149 0
 621 0030 FFF7FEFF 		bl	serial_start
 622              	.LVL64:
 623              		.loc 1 150 0
 624 0034 FFF7FEFF 		bl	VL53L0X_start
 625              	.LVL65:
 626              	.L71:
 627              		.loc 1 140 0
ARM GAS  /tmp/ccj8Icqh.s 			page 12


 628 0038 0125     		movs	r5, #1
 629 003a 0024     		movs	r4, #0
 630 003c 03E0     		b	.L66
 631              	.LVL66:
 632              	.L69:
 633              	.LBB18:
 634              		.loc 1 175 0 discriminator 2
 635 003e 082D     		cmp	r5, #8
 636 0040 1DD0     		beq	.L83
 637              	.LVL67:
 638              	.L70:
 639 0042 0134     		adds	r4, r4, #1
 640 0044 0135     		adds	r5, r5, #1
 641              	.L66:
 642              	.LVL68:
 643              		.loc 1 178 0
 644 0046 2046     		mov	r0, r4
 645 0048 FFF7FEFF 		bl	get_prox
 646              	.LVL69:
 647 004c 2246     		mov	r2, r4
 648 004e 0346     		mov	r3, r0
 649 0050 3146     		mov	r1, r6
 650 0052 6846     		mov	r0, sp
 651 0054 FFF7FEFF 		bl	sprintf
 652              	.LVL70:
 653              		.loc 1 179 0
 654 0058 0146     		mov	r1, r0
 655 005a 6846     		mov	r0, sp
 656              	.LVL71:
 657 005c FFF7FEFF 		bl	e_send_uart1_char
 658              	.LVL72:
 659              		.loc 1 185 0
 660 0060 2046     		mov	r0, r4
 661              		.loc 1 181 0
 662 0062 14B3     		cbz	r4, .L67
 663              		.loc 1 181 0 is_stmt 0 discriminator 1
 664 0064 062C     		cmp	r4, #6
 665 0066 20D0     		beq	.L67
 666              		.loc 1 185 0 is_stmt 1
 667 0068 FFF7FEFF 		bl	get_prox
 668              	.LVL73:
 669 006c 4F28     		cmp	r0, #79
 670 006e E6DD     		ble	.L69
 671              		.loc 1 186 0
 672 0070 4FF4AF71 		mov	r1, #350
 673 0074 2046     		mov	r0, r4
 674 0076 FFF7FEFF 		bl	Turn_Puck
 675              	.LVL74:
 676              	.L84:
 677              		.loc 1 175 0
 678 007a 082D     		cmp	r5, #8
 679 007c E1D1     		bne	.L70
 680              	.L83:
 681              	.LBE18:
 682              		.loc 1 190 0
 683 007e 4FF49670 		mov	r0, #300
 684 0082 FFF7FEFF 		bl	chThdSleep
ARM GAS  /tmp/ccj8Icqh.s 			page 13


 685              	.LVL75:
 686              		.loc 1 192 0
 687 0086 FFF7FEFF 		bl	VL53L0X_get_dist_mm
 688              	.LVL76:
 689              		.loc 1 191 0
 690 008a 3946     		mov	r1, r7
 691 008c 0246     		mov	r2, r0
 692 008e 6846     		mov	r0, sp
 693 0090 FFF7FEFF 		bl	sprintf
 694              	.LVL77:
 695              		.loc 1 193 0
 696 0094 0146     		mov	r1, r0
 697 0096 6846     		mov	r0, sp
 698              	.LVL78:
 699 0098 FFF7FEFF 		bl	e_send_uart1_char
 700              	.LVL79:
 701              		.loc 1 194 0
 702 009c FFF7FEFF 		bl	Follow_Object
 703              	.LVL80:
 704              		.loc 1 195 0
 705 00a0 4FF4FA70 		mov	r0, #500
 706 00a4 FFF7FEFF 		bl	chThdSleep
 707              	.LVL81:
 708              		.loc 1 175 0
 709 00a8 C6E7     		b	.L71
 710              	.LVL82:
 711              	.L67:
 712              	.LBB19:
 713              		.loc 1 182 0
 714 00aa 2046     		mov	r0, r4
 715              	.LVL83:
 716 00ac FFF7FEFF 		bl	get_prox
 717              	.LVL84:
 718 00b0 B0F5FA7F 		cmp	r0, #500
 719 00b4 C5DB     		blt	.L70
 720              		.loc 1 186 0
 721 00b6 4FF4AF71 		mov	r1, #350
 722 00ba 2046     		mov	r0, r4
 723 00bc FFF7FEFF 		bl	Turn_Puck
 724              	.LVL85:
 725 00c0 DBE7     		b	.L84
 726              	.L86:
 727 00c2 00BF     		.align	2
 728              	.L85:
 729 00c4 00000000 		.word	__stack_chk_guard
 730 00c8 00000000 		.word	.LC0
 731 00cc 14000000 		.word	.LC1
 732 00d0 00000000 		.word	.LANCHOR0
 733 00d4 00000000 		.word	.LANCHOR1
 734 00d8 00000000 		.word	.LANCHOR2
 735              	.LBE19:
 736              		.cfi_endproc
 737              	.LFE263:
 738              		.size	main, .-main
 739              		.section	.text.__stack_chk_fail,"ax",%progbits
 740              		.align	1
 741              		.p2align 4,,15
ARM GAS  /tmp/ccj8Icqh.s 			page 14


 742              		.global	__stack_chk_fail
 743              		.syntax unified
 744              		.thumb
 745              		.thumb_func
 746              		.fpu fpv4-sp-d16
 747              		.type	__stack_chk_fail, %function
 748              	__stack_chk_fail:
 749              	.LFB264:
 750              		.loc 1 202 0
 751              		.cfi_startproc
 752              		@ args = 0, pretend = 0, frame = 8
 753              		@ frame_needed = 0, uses_anonymous_args = 0
 754 0000 00B5     		push	{lr}
 755              		.cfi_def_cfa_offset 4
 756              		.cfi_offset 14, -4
 757 0002 084B     		ldr	r3, .L92
 758 0004 83B0     		sub	sp, sp, #12
 759              		.cfi_def_cfa_offset 16
 760              		.loc 1 202 0
 761 0006 1A68     		ldr	r2, [r3]
 762 0008 0192     		str	r2, [sp, #4]
 763              		.loc 1 203 0
 764 000a 019A     		ldr	r2, [sp, #4]
 765 000c 1B68     		ldr	r3, [r3]
 766 000e 9A42     		cmp	r2, r3
 767 0010 05D1     		bne	.L91
 768 0012 0548     		ldr	r0, .L92+4
 769              		.loc 1 204 0
 770 0014 03B0     		add	sp, sp, #12
 771              		.cfi_remember_state
 772              		.cfi_def_cfa_offset 4
 773              		@ sp needed
 774 0016 5DF804EB 		ldr	lr, [sp], #4
 775              		.cfi_restore 14
 776              		.cfi_def_cfa_offset 0
 777              		.loc 1 203 0
 778 001a FFF7FEBF 		b	chSysHalt
 779              	.LVL86:
 780              	.L91:
 781              		.cfi_restore_state
 782 001e FFF7FEFF 		bl	__stack_chk_fail
 783              	.LVL87:
 784              	.L93:
 785 0022 00BF     		.align	2
 786              	.L92:
 787 0024 00000000 		.word	__stack_chk_guard
 788 0028 00000000 		.word	.LC2
 789              		.cfi_endproc
 790              	.LFE264:
 791              		.size	__stack_chk_fail, .-__stack_chk_fail
 792              		.global	__stack_chk_guard
 793              		.global	imgCol
 794              		.global	imgRow
 795              		.global	bus_condvar
 796              		.global	bus_lock
 797              		.global	bus
 798              		.section	.bss.bus,"aw",%nobits
ARM GAS  /tmp/ccj8Icqh.s 			page 15


 799              		.align	2
 800              		.set	.LANCHOR2,. + 0
 801              		.type	bus, %object
 802              		.size	bus, 12
 803              	bus:
 804 0000 00000000 		.space	12
 804      00000000 
 804      00000000 
 805              		.section	.data.__stack_chk_guard,"aw",%progbits
 806              		.align	2
 807              		.type	__stack_chk_guard, %object
 808              		.size	__stack_chk_guard, 4
 809              	__stack_chk_guard:
 810 0000 96E3DEE2 		.word	-488709226
 811              		.section	.data.bus_condvar,"aw",%progbits
 812              		.align	2
 813              		.set	.LANCHOR0,. + 0
 814              		.type	bus_condvar, %object
 815              		.size	bus_condvar, 8
 816              	bus_condvar:
 817 0000 00000000 		.word	bus_condvar
 818 0004 00000000 		.word	bus_condvar
 819              		.section	.data.bus_lock,"aw",%progbits
 820              		.align	2
 821              		.set	.LANCHOR1,. + 0
 822              		.type	bus_lock, %object
 823              		.size	bus_lock, 20
 824              	bus_lock:
 825 0000 00000000 		.word	bus_lock
 826 0004 00000000 		.word	bus_lock
 827 0008 00000000 		.word	0
 828 000c 00000000 		.word	0
 829 0010 00000000 		.word	0
 830              		.section	.rodata.__stack_chk_fail.str1.4,"aMS",%progbits,1
 831              		.align	2
 832              	.LC2:
 833 0000 53746163 		.ascii	"Stack smashing detected\000"
 833      6B20736D 
 833      61736869 
 833      6E672064 
 833      65746563 
 834              		.section	.rodata.imgCol,"a",%progbits
 835              		.align	2
 836              		.type	imgCol, %object
 837              		.size	imgCol, 4
 838              	imgCol:
 839 0000 80020000 		.word	640
 840              		.section	.rodata.imgRow,"a",%progbits
 841              		.align	2
 842              		.type	imgRow, %object
 843              		.size	imgRow, 4
 844              	imgRow:
 845 0000 E0010000 		.word	480
 846              		.section	.rodata.main.str1.4,"aMS",%progbits,1
 847              		.align	2
 848              	.LC0:
 849 0000 50726F78 		.ascii	"Prox Sensor %d: %d\012\000"
ARM GAS  /tmp/ccj8Icqh.s 			page 16


 849      2053656E 
 849      736F7220 
 849      25643A20 
 849      25640A00 
 850              	.LC1:
 851 0014 44697374 		.ascii	"Distance Sensor: %d\012\000"
 851      616E6365 
 851      2053656E 
 851      736F723A 
 851      2025640A 
 852              		.text
 853              	.Letext0:
 854              		.file 2 "/home/uos/Documents/Epuck2_groupe/Eclipse_e-puck2/Tools/gcc-arm-none-eabi-7-2017-q4-major
 855              		.file 3 "/home/uos/Documents/Epuck2_groupe/Eclipse_e-puck2/Tools/gcc-arm-none-eabi-7-2017-q4-major
 856              		.file 4 "/home/uos/Documents/Epuck2_groupe/Eclipse_e-puck2/Tools/gcc-arm-none-eabi-7-2017-q4-major
 857              		.file 5 "/home/uos/Documents/Epuck2_groupe/Eclipse_e-puck2/Tools/gcc-arm-none-eabi-7-2017-q4-major
 858              		.file 6 "/home/uos/Documents/Epuck2_groupe/Eclipse_e-puck2/Tools/gcc-arm-none-eabi-7-2017-q4-major
 859              		.file 7 "/home/uos/Documents/Epuck2_groupe/Eclipse_e-puck2/Tools/gcc-arm-none-eabi-7-2017-q4-major
 860              		.file 8 "/home/uos/Documents/Epuck2_groupe/Eclipse_e-puck2/Tools/gcc-arm-none-eabi-7-2017-q4-major
 861              		.file 9 "/home/uos/Documents/Epuck2_groupe/Eclipse_e-puck2/Tools/gcc-arm-none-eabi-7-2017-q4-major
 862              		.file 10 "../e-puck2_main-processor/ChibiOS//os/rt/ports/ARMCMx/compilers/GCC/chtypes.h"
 863              		.file 11 "../e-puck2_main-processor/ChibiOS//os/rt/include/chsystypes.h"
 864              		.file 12 "../e-puck2_main-processor/ChibiOS//os/rt/include/chschd.h"
 865              		.file 13 "../e-puck2_main-processor/ChibiOS//os/ext/CMSIS/include/core_cm4.h"
 866              		.file 14 "../e-puck2_main-processor/ChibiOS//os/ext/CMSIS/ST/system_stm32f4xx.h"
 867              		.file 15 "../e-puck2_main-processor/ChibiOS//os/ext/CMSIS/ST/stm32f407xx.h"
 868              		.file 16 "../e-puck2_main-processor/ChibiOS//os/rt/ports/ARMCMx/chcore.h"
 869              		.file 17 "../e-puck2_main-processor/ChibiOS//os/rt/ports/ARMCMx/chcore_v7m.h"
 870              		.file 18 "../e-puck2_main-processor/ChibiOS//os/rt/include/chdebug.h"
 871              		.file 19 "../e-puck2_main-processor/ChibiOS//os/rt/include/chtm.h"
 872              		.file 20 "../e-puck2_main-processor/ChibiOS//os/rt/include/chstats.h"
 873              		.file 21 "../e-puck2_main-processor/ChibiOS//os/rt/include/chsem.h"
 874              		.file 22 "../e-puck2_main-processor/ChibiOS//os/rt/include/chmtx.h"
 875              		.file 23 "../e-puck2_main-processor/ChibiOS//os/rt/include/chregistry.h"
 876              		.file 24 "../e-puck2_main-processor/ChibiOS//os/rt/include/chcond.h"
 877              		.file 25 "../e-puck2_main-processor/ChibiOS//os/rt/include/chevents.h"
 878              		.file 26 "../e-puck2_main-processor/ChibiOS//os/rt/include/chqueues.h"
 879              		.file 27 "../e-puck2_main-processor/ChibiOS//os/hal/ports/STM32/STM32F4xx/stm32_dma.h"
 880              		.file 28 "../e-puck2_main-processor/ChibiOS//os/hal/include/hal_ioblock.h"
 881              		.file 29 "../e-puck2_main-processor/ChibiOS//os/hal/ports/STM32/LLD/GPIOv2/pal_lld.h"
 882              		.file 30 "../e-puck2_main-processor/ChibiOS//os/hal/include/adc.h"
 883              		.file 31 "../e-puck2_main-processor/ChibiOS//os/hal/ports/STM32/STM32F4xx/adc_lld.h"
 884              		.file 32 "../e-puck2_main-processor/ChibiOS//os/hal/include/can.h"
 885              		.file 33 "../e-puck2_main-processor/ChibiOS//os/hal/ports/STM32/LLD/can_lld.h"
 886              		.file 34 "../e-puck2_main-processor/ChibiOS//os/hal/include/dac.h"
 887              		.file 35 "../e-puck2_main-processor/ChibiOS//os/hal/ports/STM32/LLD/DACv1/dac_lld.h"
 888              		.file 36 "../e-puck2_main-processor/ChibiOS//os/hal/include/ext.h"
 889              		.file 37 "../e-puck2_main-processor/ChibiOS//os/hal/ports/STM32/LLD/ext_lld.h"
 890              		.file 38 "../e-puck2_main-processor/ChibiOS//os/hal/include/gpt.h"
 891              		.file 39 "../e-puck2_main-processor/ChibiOS//os/hal/ports/STM32/LLD/TIMv1/gpt_lld.h"
 892              		.file 40 "../e-puck2_main-processor/ChibiOS//os/hal/ports/STM32/LLD/TIMv1/stm32_tim.h"
 893              		.file 41 "../e-puck2_main-processor/ChibiOS//os/hal/include/i2c.h"
 894              		.file 42 "../e-puck2_main-processor/ChibiOS//os/hal/ports/STM32/LLD/I2Cv1/i2c_lld.h"
 895              		.file 43 "../e-puck2_main-processor/ChibiOS//os/hal/include/i2s.h"
 896              		.file 44 "../e-puck2_main-processor/ChibiOS//os/hal/ports/STM32/LLD/SPIv1/i2s_lld.h"
 897              		.file 45 "../e-puck2_main-processor/ChibiOS//os/hal/include/pwm.h"
 898              		.file 46 "../e-puck2_main-processor/ChibiOS//os/hal/ports/STM32/LLD/TIMv1/pwm_lld.h"
ARM GAS  /tmp/ccj8Icqh.s 			page 17


 899              		.file 47 "../e-puck2_main-processor/ChibiOS//os/hal/include/serial.h"
 900              		.file 48 "../e-puck2_main-processor/ChibiOS//os/hal/ports/STM32/LLD/USARTv1/serial_lld.h"
 901              		.file 49 "../e-puck2_main-processor/ChibiOS//os/hal/include/sdc.h"
 902              		.file 50 "../e-puck2_main-processor/ChibiOS//os/hal/ports/STM32/LLD/sdc_lld.h"
 903              		.file 51 "../e-puck2_main-processor/ChibiOS//os/hal/include/spi.h"
 904              		.file 52 "../e-puck2_main-processor/ChibiOS//os/hal/ports/STM32/LLD/SPIv1/spi_lld.h"
 905              		.file 53 "../e-puck2_main-processor/ChibiOS//os/hal/include/usb.h"
 906              		.file 54 "../e-puck2_main-processor/ChibiOS//os/hal/ports/STM32/LLD/OTGv1/usb_lld.h"
 907              		.file 55 "../e-puck2_main-processor/ChibiOS//os/hal/ports/STM32/LLD/OTGv1/stm32_otg.h"
 908              		.file 56 "/home/uos/Documents/Epuck2_groupe/Eclipse_e-puck2/Tools/gcc-arm-none-eabi-7-2017-q4-majo
 909              		.file 57 "../e-puck2_main-processor/src/msgbus/messagebus.h"
 910              		.file 58 "../e-puck2_main-processor/src/parameter/parameter.h"
 911              		.file 59 "./main.h"
 912              		.file 60 "../e-puck2_main-processor/ChibiOS_ext/os/hal/include/../ports/STM32/STM32F4xx/dcmi_lld.h
 913              		.file 61 "../e-puck2_main-processor/ChibiOS//os/rt/include/chsys.h"
 914              		.file 62 "../e-puck2_main-processor/src/sensors/proximity.h"
 915              		.file 63 "/home/uos/Documents/Epuck2_groupe/Eclipse_e-puck2/Tools/gcc-arm-none-eabi-7-2017-q4-majo
 916              		.file 64 "../e-puck2_main-processor/src/epuck1x/uart/e_uart_char.h"
 917              		.file 65 "../e-puck2_main-processor/ChibiOS//os/hal/include/hal.h"
 918              		.file 66 "../e-puck2_main-processor/src/memory_protection.h"
 919              		.file 67 "../e-puck2_main-processor/src/motors.h"
 920              		.file 68 "../e-puck2_main-processor/src/serial_comm.h"
 921              		.file 69 "../e-puck2_main-processor/src/sensors/VL53L0X/VL53L0X.h"
 922              		.file 70 "../e-puck2_main-processor/ChibiOS//os/rt/include/chthreads.h"
 923              		.file 71 "../e-puck2_main-processor/src/camera/camera.h"