ARM GAS  /tmp/ccQOaqRM.s 			page 1


   1              		.cpu cortex-m4
   2              		.eabi_attribute 27, 1
   3              		.eabi_attribute 28, 1
   4              		.eabi_attribute 20, 1
   5              		.eabi_attribute 21, 1
   6              		.eabi_attribute 23, 3
   7              		.eabi_attribute 24, 1
   8              		.eabi_attribute 25, 1
   9              		.eabi_attribute 26, 1
  10              		.eabi_attribute 30, 2
  11              		.eabi_attribute 34, 1
  12              		.eabi_attribute 18, 4
  13              		.file	"proximity.c"
  14              		.text
  15              	.Ltext0:
  16              		.cfi_sections	.debug_frame
  17              		.section	.text.pwm_reset_cb,"ax",%progbits
  18              		.align	1
  19              		.p2align 4,,15
  20              		.syntax unified
  21              		.thumb
  22              		.thumb_func
  23              		.fpu fpv4-sp-d16
  24              		.type	pwm_reset_cb, %function
  25              	pwm_reset_cb:
  26              	.LFB261:
  27              		.file 1 "../e-puck2_main-processor/src/sensors/proximity.c"
  28              		.loc 1 236 0
  29              		.cfi_startproc
  30              		@ args = 0, pretend = 0, frame = 8
  31              		@ frame_needed = 0, uses_anonymous_args = 0
  32              	.LVL0:
  33 0000 10B5     		push	{r4, lr}
  34              		.cfi_def_cfa_offset 8
  35              		.cfi_offset 4, -8
  36              		.cfi_offset 14, -4
  37              		.loc 1 238 0
  38 0002 1E49     		ldr	r1, .L16
  39              		.loc 1 236 0
  40 0004 1E4A     		ldr	r2, .L16+4
  41              		.loc 1 238 0
  42 0006 0B78     		ldrb	r3, [r1]	@ zero_extendqisi2
  43              		.loc 1 236 0
  44 0008 1068     		ldr	r0, [r2]
  45              	.LVL1:
  46 000a 82B0     		sub	sp, sp, #8
  47              		.cfi_def_cfa_offset 16
  48              		.loc 1 238 0
  49 000c 013B     		subs	r3, r3, #1
  50              		.loc 1 236 0
  51 000e 0190     		str	r0, [sp, #4]
  52              		.loc 1 238 0
  53 0010 072B     		cmp	r3, #7
  54 0012 0AD8     		bhi	.L1
  55 0014 DFE803F0 		tbb	[pc, r3]
  56              	.L4:
  57 0018 12       		.byte	(.L3-.L4)/2
ARM GAS  /tmp/ccQOaqRM.s 			page 2


  58 0019 15       		.byte	(.L5-.L4)/2
  59 001a 1C       		.byte	(.L6-.L4)/2
  60 001b 1F       		.byte	(.L7-.L4)/2
  61 001c 26       		.byte	(.L8-.L4)/2
  62 001d 29       		.byte	(.L9-.L4)/2
  63 001e 0F       		.byte	(.L10-.L4)/2
  64 001f 04       		.byte	(.L11-.L4)/2
  65              		.p2align 1
  66              	.L11:
  67              		.loc 1 266 0
  68 0020 1848     		ldr	r0, .L16+8
  69 0022 0824     		movs	r4, #8
  70              		.loc 1 267 0
  71 0024 0123     		movs	r3, #1
  72              		.loc 1 266 0
  73 0026 0483     		strh	r4, [r0, #24]	@ movhi
  74              		.loc 1 267 0
  75 0028 0B70     		strb	r3, [r1]
  76              	.L1:
  77              		.loc 1 270 0
  78 002a 0199     		ldr	r1, [sp, #4]
  79 002c 1368     		ldr	r3, [r2]
  80 002e 9942     		cmp	r1, r3
  81 0030 21D1     		bne	.L15
  82 0032 02B0     		add	sp, sp, #8
  83              		.cfi_remember_state
  84              		.cfi_def_cfa_offset 8
  85              		@ sp needed
  86 0034 10BD     		pop	{r4, pc}
  87              	.L10:
  88              		.cfi_restore_state
  89              		.loc 1 263 0
  90 0036 0823     		movs	r3, #8
  91 0038 0B70     		strb	r3, [r1]
  92              		.loc 1 264 0
  93 003a F6E7     		b	.L1
  94              	.L3:
  95              		.loc 1 242 0
  96 003c 0223     		movs	r3, #2
  97 003e 0B70     		strb	r3, [r1]
  98              		.loc 1 243 0
  99 0040 F3E7     		b	.L1
 100              	.L5:
 101              		.loc 1 245 0
 102 0042 1148     		ldr	r0, .L16+12
 103 0044 4FF48054 		mov	r4, #4096
 104              		.loc 1 246 0
 105 0048 0323     		movs	r3, #3
 106              		.loc 1 245 0
 107 004a 0483     		strh	r4, [r0, #24]	@ movhi
 108              		.loc 1 246 0
 109 004c 0B70     		strb	r3, [r1]
 110              		.loc 1 247 0
 111 004e ECE7     		b	.L1
 112              	.L6:
 113              		.loc 1 249 0
 114 0050 0423     		movs	r3, #4
ARM GAS  /tmp/ccQOaqRM.s 			page 3


 115 0052 0B70     		strb	r3, [r1]
 116              		.loc 1 250 0
 117 0054 E9E7     		b	.L1
 118              	.L7:
 119              		.loc 1 252 0
 120 0056 0C48     		ldr	r0, .L16+12
 121 0058 4FF48044 		mov	r4, #16384
 122              		.loc 1 253 0
 123 005c 0523     		movs	r3, #5
 124              		.loc 1 252 0
 125 005e 0483     		strh	r4, [r0, #24]	@ movhi
 126              		.loc 1 253 0
 127 0060 0B70     		strb	r3, [r1]
 128              		.loc 1 254 0
 129 0062 E2E7     		b	.L1
 130              	.L8:
 131              		.loc 1 256 0
 132 0064 0623     		movs	r3, #6
 133 0066 0B70     		strb	r3, [r1]
 134              		.loc 1 257 0
 135 0068 DFE7     		b	.L1
 136              	.L9:
 137              		.loc 1 259 0
 138 006a 0648     		ldr	r0, .L16+8
 139 006c 0424     		movs	r4, #4
 140              		.loc 1 260 0
 141 006e 0723     		movs	r3, #7
 142              		.loc 1 259 0
 143 0070 0483     		strh	r4, [r0, #24]	@ movhi
 144              		.loc 1 260 0
 145 0072 0B70     		strb	r3, [r1]
 146              		.loc 1 261 0
 147 0074 D9E7     		b	.L1
 148              	.L15:
 149              		.loc 1 270 0
 150 0076 FFF7FEFF 		bl	__stack_chk_fail
 151              	.LVL2:
 152              	.L17:
 153 007a 00BF     		.align	2
 154              	.L16:
 155 007c 00000000 		.word	.LANCHOR0
 156 0080 00000000 		.word	__stack_chk_guard
 157 0084 00100240 		.word	1073876992
 158 0088 00040240 		.word	1073873920
 159              		.cfi_endproc
 160              	.LFE261:
 161              		.size	pwm_reset_cb, .-pwm_reset_cb
 162              		.section	.text.pwm_ch1_cb,"ax",%progbits
 163              		.align	1
 164              		.p2align 4,,15
 165              		.syntax unified
 166              		.thumb
 167              		.thumb_func
 168              		.fpu fpv4-sp-d16
 169              		.type	pwm_ch1_cb, %function
 170              	pwm_ch1_cb:
 171              	.LFB262:
ARM GAS  /tmp/ccQOaqRM.s 			page 4


 172              		.loc 1 279 0
 173              		.cfi_startproc
 174              		@ args = 0, pretend = 0, frame = 8
 175              		@ frame_needed = 0, uses_anonymous_args = 0
 176              	.LVL3:
 177 0000 30B5     		push	{r4, r5, lr}
 178              		.cfi_def_cfa_offset 12
 179              		.cfi_offset 4, -12
 180              		.cfi_offset 5, -8
 181              		.cfi_offset 14, -4
 182 0002 0C4B     		ldr	r3, .L22
 183              		.loc 1 282 0
 184 0004 0C49     		ldr	r1, .L22+4
 185              		.loc 1 279 0
 186 0006 1868     		ldr	r0, [r3]
 187              	.LVL4:
 188              		.loc 1 284 0
 189 0008 0C4A     		ldr	r2, .L22+8
 190              		.loc 1 279 0
 191 000a 83B0     		sub	sp, sp, #12
 192              		.cfi_def_cfa_offset 24
 193              		.loc 1 283 0
 194 000c 4FF48045 		mov	r5, #16384
 195              		.loc 1 279 0
 196 0010 0190     		str	r0, [sp, #4]
 197              		.loc 1 282 0
 198 0012 4FF48050 		mov	r0, #4096
 199 0016 4883     		strh	r0, [r1, #26]	@ movhi
 200              		.loc 1 284 0
 201 0018 0424     		movs	r4, #4
 202              		.loc 1 285 0
 203 001a 0820     		movs	r0, #8
 204              		.loc 1 283 0
 205 001c 4D83     		strh	r5, [r1, #26]	@ movhi
 206              		.loc 1 284 0
 207 001e 5483     		strh	r4, [r2, #26]	@ movhi
 208              		.loc 1 285 0
 209 0020 5083     		strh	r0, [r2, #26]	@ movhi
 210              		.loc 1 286 0
 211 0022 019A     		ldr	r2, [sp, #4]
 212 0024 1B68     		ldr	r3, [r3]
 213 0026 9A42     		cmp	r2, r3
 214 0028 01D1     		bne	.L21
 215 002a 03B0     		add	sp, sp, #12
 216              		.cfi_remember_state
 217              		.cfi_def_cfa_offset 12
 218              		@ sp needed
 219 002c 30BD     		pop	{r4, r5, pc}
 220              	.L21:
 221              		.cfi_restore_state
 222 002e FFF7FEFF 		bl	__stack_chk_fail
 223              	.LVL5:
 224              	.L23:
 225 0032 00BF     		.align	2
 226              	.L22:
 227 0034 00000000 		.word	__stack_chk_guard
 228 0038 00040240 		.word	1073873920
ARM GAS  /tmp/ccQOaqRM.s 			page 5


 229 003c 00100240 		.word	1073876992
 230              		.cfi_endproc
 231              	.LFE262:
 232              		.size	pwm_ch1_cb, .-pwm_ch1_cb
 233              		.section	.text.proximity_thd,"ax",%progbits
 234              		.align	1
 235              		.p2align 4,,15
 236              		.syntax unified
 237              		.thumb
 238              		.thumb_func
 239              		.fpu fpv4-sp-d16
 240              		.type	proximity_thd, %function
 241              	proximity_thd:
 242              	.LFB260:
 243              		.loc 1 160 0
 244              		.cfi_startproc
 245              		@ args = 0, pretend = 0, frame = 136
 246              		@ frame_needed = 0, uses_anonymous_args = 0
 247              	.LVL6:
 248 0000 2DE9F04F 		push	{r4, r5, r6, r7, r8, r9, r10, fp, lr}
 249              		.cfi_def_cfa_offset 36
 250              		.cfi_offset 4, -36
 251              		.cfi_offset 5, -32
 252              		.cfi_offset 6, -28
 253              		.cfi_offset 7, -24
 254              		.cfi_offset 8, -20
 255              		.cfi_offset 9, -16
 256              		.cfi_offset 10, -12
 257              		.cfi_offset 11, -8
 258              		.cfi_offset 14, -4
 259              	.LBB48:
 260              	.LBB49:
 261              		.file 2 "../e-puck2_main-processor/ChibiOS//os/rt/include/chregistry.h"
 262              		.loc 2 135 0
 263 0004 504B     		ldr	r3, .L43
 264              	.LBE49:
 265              	.LBE48:
 266              		.loc 1 160 0
 267 0006 514A     		ldr	r2, .L43+4
 268              	.LBB51:
 269              	.LBB50:
 270              		.loc 2 135 0
 271 0008 9B69     		ldr	r3, [r3, #24]
 272 000a 5149     		ldr	r1, .L43+8
 273 000c 9961     		str	r1, [r3, #24]
 274              	.LBE50:
 275              	.LBE51:
 276              		.loc 1 160 0
 277 000e A5B0     		sub	sp, sp, #148
 278              		.cfi_def_cfa_offset 184
 279              		.loc 1 165 0
 280 0010 07AE     		add	r6, sp, #28
 281              		.loc 1 166 0
 282 0012 05AD     		add	r5, sp, #20
 283              		.loc 1 167 0
 284 0014 8023     		movs	r3, #128
 285              		.loc 1 160 0
ARM GAS  /tmp/ccQOaqRM.s 			page 6


 286 0016 1768     		ldr	r7, [r2]
 287              		.loc 1 167 0
 288 0018 0093     		str	r3, [sp]
 289 001a 3146     		mov	r1, r6
 290 001c 2A46     		mov	r2, r5
 291              		.loc 1 165 0
 292 001e 0024     		movs	r4, #0
 293              		.loc 1 167 0
 294 0020 0CA8     		add	r0, sp, #48
 295              	.LVL7:
 296 0022 4C4B     		ldr	r3, .L43+12
 297              		.loc 1 160 0
 298 0024 2397     		str	r7, [sp, #140]
 299              		.loc 1 165 0
 300 0026 CDE90766 		strd	r6, r6, [sp, #28]
 301              		.loc 1 166 0
 302 002a CDE90555 		strd	r5, r5, [sp, #20]
 303              		.loc 1 165 0
 304 002e CDE90944 		strd	r4, r4, [sp, #36]
 305 0032 0B94     		str	r4, [sp, #44]
 306              		.loc 1 167 0
 307 0034 FFF7FEFF 		bl	messagebus_topic_init
 308              	.LVL8:
 309              		.loc 1 168 0
 310 0038 0CA9     		add	r1, sp, #48
 311 003a 474A     		ldr	r2, .L43+16
 312 003c 4748     		ldr	r0, .L43+20
 313 003e 454C     		ldr	r4, .L43+12
 314 0040 474D     		ldr	r5, .L43+24
 315 0042 DFF83C81 		ldr	r8, .L43+56
 316 0046 DFF83CB1 		ldr	fp, .L43+60
 317              	.LBB52:
 318              	.LBB53:
 319              		.file 3 "../e-puck2_main-processor/ChibiOS//os/rt/include/chbsem.h"
 320              		.loc 3 143 0
 321 004a DFF83CA1 		ldr	r10, .L43+64
 322              	.LBE53:
 323              	.LBE52:
 324              		.loc 1 168 0
 325 004e FFF7FEFF 		bl	messagebus_advertise_topic
 326              	.LVL9:
 327 0052 04F11C06 		add	r6, r4, #28
 328 0056 04F16007 		add	r7, r4, #96
 329              		.loc 1 200 0
 330 005a A146     		mov	r9, r4
 331              	.L25:
 332              	.LVL10:
 333              	.LBB55:
 334              	.LBB54:
 335              		.loc 3 143 0
 336 005c 5046     		mov	r0, r10
 337 005e FFF7FEFF 		bl	chSemWait
 338              	.LVL11:
 339              	.LBE54:
 340              	.LBE55:
 341              		.loc 1 174 0
 342 0062 2B68     		ldr	r3, [r5]
ARM GAS  /tmp/ccQOaqRM.s 			page 7


 343              		.loc 1 176 0
 344 0064 2A6A     		ldr	r2, [r5, #32]
 345              		.loc 1 174 0
 346 0066 2360     		str	r3, [r4]
 347              		.loc 1 177 0
 348 0068 2B6B     		ldr	r3, [r5, #48]
 349              		.loc 1 176 0
 350 006a A260     		str	r2, [r4, #8]
 351              		.loc 1 177 0
 352 006c E360     		str	r3, [r4, #12]
 353              		.loc 1 179 0
 354 006e 6A69     		ldr	r2, [r5, #20]
 355              		.loc 1 180 0
 356 0070 6B6A     		ldr	r3, [r5, #36]
 357              		.loc 1 175 0
 358 0072 2969     		ldr	r1, [r5, #16]
 359              		.loc 1 179 0
 360 0074 6261     		str	r2, [r4, #20]
 361              		.loc 1 180 0
 362 0076 A361     		str	r3, [r4, #24]
 363              		.loc 1 183 0
 364 0078 AA68     		ldr	r2, [r5, #8]
 365              		.loc 1 184 0
 366 007a AB69     		ldr	r3, [r5, #24]
 367              		.loc 1 175 0
 368 007c 6160     		str	r1, [r4, #4]
 369              		.loc 1 183 0
 370 007e 2262     		str	r2, [r4, #32]
 371              		.loc 1 178 0
 372 0080 6968     		ldr	r1, [r5, #4]
 373              		.loc 1 186 0
 374 0082 AA6B     		ldr	r2, [r5, #56]
 375              		.loc 1 184 0
 376 0084 6362     		str	r3, [r4, #36]
 377              		.loc 1 187 0
 378 0086 EB68     		ldr	r3, [r5, #12]
 379              		.loc 1 178 0
 380 0088 2161     		str	r1, [r4, #16]
 381              		.loc 1 186 0
 382 008a E262     		str	r2, [r4, #44]
 383              		.loc 1 181 0
 384 008c 696B     		ldr	r1, [r5, #52]
 385              		.loc 1 189 0
 386 008e EA6A     		ldr	r2, [r5, #44]
 387              		.loc 1 187 0
 388 0090 2363     		str	r3, [r4, #48]
 389              		.loc 1 190 0
 390 0092 EB6B     		ldr	r3, [r5, #60]
 391              		.loc 1 181 0
 392 0094 E161     		str	r1, [r4, #28]
 393              		.loc 1 185 0
 394 0096 A96A     		ldr	r1, [r5, #40]
 395 0098 A162     		str	r1, [r4, #40]
 396              		.loc 1 190 0
 397 009a C4E90E23 		strd	r2, r3, [r4, #56]
 398              	.LVL12:
 399              		.loc 1 188 0
ARM GAS  /tmp/ccQOaqRM.s 			page 8


 400 009e E969     		ldr	r1, [r5, #28]
 401 00a0 6163     		str	r1, [r4, #52]
 402 00a2 3049     		ldr	r1, .L43+28
 403              	.LBB56:
 404              		.loc 1 194 0
 405 00a4 0020     		movs	r0, #0
 406              	.LVL13:
 407              	.L29:
 408              		.loc 1 193 0
 409 00a6 4A6A     		ldr	r2, [r1, #36]
 410 00a8 51F8043F 		ldr	r3, [r1, #4]!
 411 00ac 9A42     		cmp	r2, r3
 412              		.loc 1 196 0
 413 00ae 96BF     		itet	ls
 414 00b0 9B1A     		subls	r3, r3, r2
 415              		.loc 1 194 0
 416 00b2 0864     		strhi	r0, [r1, #64]
 417              		.loc 1 196 0
 418 00b4 0B64     		strls	r3, [r1, #64]
 419              		.loc 1 192 0
 420 00b6 B142     		cmp	r1, r6
 421 00b8 F5D1     		bne	.L29
 422              	.LBE56:
 423              		.loc 1 200 0
 424 00ba 8022     		movs	r2, #128
 425 00bc 4946     		mov	r1, r9
 426 00be 0CA8     		add	r0, sp, #48
 427 00c0 FFF7FEFF 		bl	messagebus_topic_publish
 428              	.LVL14:
 429              		.loc 1 202 0
 430 00c4 98F80030 		ldrb	r3, [r8]	@ zero_extendqisi2
 431 00c8 002B     		cmp	r3, #0
 432 00ca C7D0     		beq	.L25
 433              		.loc 1 203 0
 434 00cc 9BF80030 		ldrb	r3, [fp]	@ zero_extendqisi2
 435 00d0 33B3     		cbz	r3, .L31
 436 00d2 012B     		cmp	r3, #1
 437 00d4 C2D1     		bne	.L25
 438 00d6 DFF8B4C0 		ldr	ip, .L43+68
 439 00da 2348     		ldr	r0, .L43+32
 440 00dc 6146     		mov	r1, ip
 441              	.L33:
 442              	.LBB57:
 443              	.LBB58:
 444              	.LBB59:
 445              		.loc 1 346 0 discriminator 3
 446 00de 50F8042B 		ldr	r2, [r0], #4
 447              	.LBE59:
 448              	.LBE58:
 449              		.loc 1 213 0 discriminator 3
 450 00e2 51F8043F 		ldr	r3, [r1, #4]!
 451              		.loc 1 212 0 discriminator 3
 452 00e6 B842     		cmp	r0, r7
 453              		.loc 1 213 0 discriminator 3
 454 00e8 1344     		add	r3, r3, r2
 455 00ea 0B60     		str	r3, [r1]
 456              	.LVL15:
ARM GAS  /tmp/ccQOaqRM.s 			page 9


 457              		.loc 1 212 0 discriminator 3
 458 00ec F7D1     		bne	.L33
 459              	.LBE57:
 460              		.loc 1 215 0
 461 00ee 1F4A     		ldr	r2, .L43+36
 462 00f0 1378     		ldrb	r3, [r2]	@ zero_extendqisi2
 463 00f2 0133     		adds	r3, r3, #1
 464 00f4 DBB2     		uxtb	r3, r3
 465              		.loc 1 216 0
 466 00f6 642B     		cmp	r3, #100
 467              		.loc 1 215 0
 468 00f8 1370     		strb	r3, [r2]
 469              		.loc 1 216 0
 470 00fa AFD1     		bne	.L25
 471 00fc 1C49     		ldr	r1, .L43+40
 472              	.L34:
 473              	.LBB60:
 474              		.loc 1 218 0 discriminator 3
 475 00fe 5CF8043F 		ldr	r3, [ip, #4]!
 476 0102 1C4A     		ldr	r2, .L43+44
 477 0104 82FB0302 		smull	r0, r2, r2, r3
 478 0108 DB17     		asrs	r3, r3, #31
 479 010a C3EB6213 		rsb	r3, r3, r2, asr #5
 480 010e 41F8043B 		str	r3, [r1], #4
 481              	.LVL16:
 482              		.loc 1 217 0 discriminator 3
 483 0112 194B     		ldr	r3, .L43+48
 484 0114 9C45     		cmp	ip, r3
 485 0116 F2D1     		bne	.L34
 486              	.LBE60:
 487              		.loc 1 220 0
 488 0118 0023     		movs	r3, #0
 489 011a 88F80030 		strb	r3, [r8]
 490 011e 9DE7     		b	.L25
 491              	.L31:
 492              		.loc 1 205 0
 493 0120 1946     		mov	r1, r3
 494 0122 2022     		movs	r2, #32
 495 0124 1248     		ldr	r0, .L43+40
 496 0126 0393     		str	r3, [sp, #12]
 497 0128 FFF7FEFF 		bl	memset
 498              	.LVL17:
 499              		.loc 1 206 0
 500 012c 039B     		ldr	r3, [sp, #12]
 501 012e 1348     		ldr	r0, .L43+52
 502 0130 1946     		mov	r1, r3
 503 0132 2022     		movs	r2, #32
 504 0134 FFF7FEFF 		bl	memset
 505              	.LVL18:
 506              		.loc 1 207 0
 507 0138 0C49     		ldr	r1, .L43+36
 508 013a 039B     		ldr	r3, [sp, #12]
 509 013c 0B70     		strb	r3, [r1]
 510              		.loc 1 208 0
 511 013e 0122     		movs	r2, #1
 512 0140 8BF80020 		strb	r2, [fp]
 513              		.loc 1 209 0
ARM GAS  /tmp/ccQOaqRM.s 			page 10


 514 0144 8AE7     		b	.L25
 515              	.L44:
 516 0146 00BF     		.align	2
 517              	.L43:
 518 0148 00000000 		.word	ch
 519 014c 00000000 		.word	__stack_chk_guard
 520 0150 00000000 		.word	.LANCHOR1
 521 0154 00000000 		.word	.LANCHOR2
 522 0158 00000000 		.word	.LC0
 523 015c 00000000 		.word	bus
 524 0160 00000000 		.word	.LANCHOR4
 525 0164 FCFFFFFF 		.word	.LANCHOR2-4
 526 0168 40000000 		.word	.LANCHOR2+64
 527 016c 00000000 		.word	.LANCHOR8
 528 0170 60000000 		.word	.LANCHOR2+96
 529 0174 1F85EB51 		.word	1374389535
 530 0178 1C000000 		.word	.LANCHOR7+28
 531 017c 00000000 		.word	.LANCHOR7
 532 0180 00000000 		.word	.LANCHOR5
 533 0184 00000000 		.word	.LANCHOR6
 534 0188 00000000 		.word	.LANCHOR3
 535 018c FCFFFFFF 		.word	.LANCHOR7-4
 536              		.cfi_endproc
 537              	.LFE260:
 538              		.size	proximity_thd, .-proximity_thd
 539              		.section	.text.adc_cb,"ax",%progbits
 540              		.align	1
 541              		.p2align 4,,15
 542              		.syntax unified
 543              		.thumb
 544              		.thumb_func
 545              		.fpu fpv4-sp-d16
 546              		.type	adc_cb, %function
 547              	adc_cb:
 548              	.LFB259:
 549              		.loc 1 66 0
 550              		.cfi_startproc
 551              		@ args = 0, pretend = 0, frame = 8
 552              		@ frame_needed = 0, uses_anonymous_args = 0
 553              	.LVL19:
 554 0000 70B5     		push	{r4, r5, r6, lr}
 555              		.cfi_def_cfa_offset 16
 556              		.cfi_offset 4, -16
 557              		.cfi_offset 5, -12
 558              		.cfi_offset 6, -8
 559              		.cfi_offset 14, -4
 560              		.loc 1 73 0
 561 0002 0269     		ldr	r2, [r0, #16]
 562              	.LVL20:
 563              		.loc 1 66 0
 564 0004 1E4D     		ldr	r5, .L57
 565              		.loc 1 73 0
 566 0006 5288     		ldrh	r2, [r2, #2]
 567              		.loc 1 66 0
 568 0008 2B68     		ldr	r3, [r5]
 569 000a 82B0     		sub	sp, sp, #8
 570              		.cfi_def_cfa_offset 24
ARM GAS  /tmp/ccQOaqRM.s 			page 11


 571              		.loc 1 66 0
 572 000c 0646     		mov	r6, r0
 573 000e 0C46     		mov	r4, r1
 574              		.loc 1 73 0
 575 0010 1C48     		ldr	r0, .L57+4
 576              	.LVL21:
 577              		.loc 1 66 0
 578 0012 0193     		str	r3, [sp, #4]
 579              	.LVL22:
 580              		.loc 1 73 0
 581 0014 9200     		lsls	r2, r2, #2
 582 0016 0021     		movs	r1, #0
 583              	.LVL23:
 584 0018 FFF7FEFF 		bl	memset
 585              	.LVL24:
 586              	.LBB61:
 587              		.loc 1 76 0
 588 001c 3369     		ldr	r3, [r6, #16]
 589 001e 5B88     		ldrh	r3, [r3, #2]
 590 0020 5BB1     		cbz	r3, .L46
 591 0022 184A     		ldr	r2, .L57+4
 592 0024 A11E     		subs	r1, r4, #2
 593 0026 0023     		movs	r3, #0
 594              	.LVL25:
 595              	.L47:
 596              		.loc 1 77 0 discriminator 3
 597 0028 31F8020F 		ldrh	r0, [r1, #2]!
 598 002c 42F8040B 		str	r0, [r2], #4
 599              		.loc 1 76 0 discriminator 3
 600 0030 3069     		ldr	r0, [r6, #16]
 601 0032 4088     		ldrh	r0, [r0, #2]
 602 0034 0133     		adds	r3, r3, #1
 603              	.LVL26:
 604 0036 9842     		cmp	r0, r3
 605 0038 F6D8     		bhi	.L47
 606              	.LVL27:
 607              	.L46:
 608              	.LBE61:
 609              	.LBB62:
 610              	.LBB63:
 611              	.LBB64:
 612              	.LBB65:
 613              	.LBB66:
 614              	.LBB67:
 615              		.file 4 "../e-puck2_main-processor/ChibiOS//os/ext/CMSIS/include/core_cmFunc.h"
 616              		.loc 4 546 0
 617 003a 2023     		movs	r3, #32
 618              		.syntax unified
 619              	@ 546 "../e-puck2_main-processor/ChibiOS//os/ext/CMSIS/include/core_cmFunc.h" 1
 620 003c 83F31188 		MSR basepri, r3
 621              	@ 0 "" 2
 622              	.LVL28:
 623              		.thumb
 624              		.syntax unified
 625              	.LBE67:
 626              	.LBE66:
 627              	.LBE65:
ARM GAS  /tmp/ccQOaqRM.s 			page 12


 628              	.LBE64:
 629              		.file 5 "../e-puck2_main-processor/ChibiOS//os/rt/include/chsys.h"
 630              		.loc 5 389 0
 631 0040 FFF7FEFF 		bl	_stats_start_measure_crit_isr
 632              	.LVL29:
 633              		.loc 5 390 0
 634 0044 FFF7FEFF 		bl	_dbg_check_lock_from_isr
 635              	.LVL30:
 636              	.LBE63:
 637              	.LBE62:
 638              	.LBB68:
 639              	.LBB69:
 640              		.loc 3 268 0
 641 0048 FFF7FEFF 		bl	chDbgCheckClassI
 642              	.LVL31:
 643              		.loc 3 270 0
 644 004c 0E48     		ldr	r0, .L57+8
 645 004e 8368     		ldr	r3, [r0, #8]
 646 0050 002B     		cmp	r3, #0
 647 0052 0FDD     		ble	.L55
 648              	.L48:
 649              	.LVL32:
 650              	.LBE69:
 651              	.LBE68:
 652              	.LBB71:
 653              	.LBB72:
 654              		.loc 5 408 0
 655 0054 FFF7FEFF 		bl	_dbg_check_unlock_from_isr
 656              	.LVL33:
 657              		.loc 5 409 0
 658 0058 FFF7FEFF 		bl	_stats_stop_measure_crit_isr
 659              	.LVL34:
 660              	.LBB73:
 661              	.LBB74:
 662              	.LBB75:
 663              	.LBB76:
 664              		.loc 4 546 0
 665 005c 0023     		movs	r3, #0
 666              		.syntax unified
 667              	@ 546 "../e-puck2_main-processor/ChibiOS//os/ext/CMSIS/include/core_cmFunc.h" 1
 668 005e 83F31188 		MSR basepri, r3
 669              	@ 0 "" 2
 670              	.LVL35:
 671              		.thumb
 672              		.syntax unified
 673              	.LBE76:
 674              	.LBE75:
 675              	.LBE74:
 676              	.LBE73:
 677              	.LBE72:
 678              	.LBE71:
 679              		.loc 1 86 0
 680 0062 019A     		ldr	r2, [sp, #4]
 681 0064 2B68     		ldr	r3, [r5]
 682              		.loc 1 85 0
 683 0066 0949     		ldr	r1, .L57+12
 684 0068 0120     		movs	r0, #1
ARM GAS  /tmp/ccQOaqRM.s 			page 13


 685              		.loc 1 86 0
 686 006a 9A42     		cmp	r2, r3
 687              		.loc 1 85 0
 688 006c 0870     		strb	r0, [r1]
 689              		.loc 1 86 0
 690 006e 04D1     		bne	.L56
 691 0070 02B0     		add	sp, sp, #8
 692              		.cfi_remember_state
 693              		.cfi_def_cfa_offset 16
 694              		@ sp needed
 695 0072 70BD     		pop	{r4, r5, r6, pc}
 696              	.LVL36:
 697              	.L55:
 698              		.cfi_restore_state
 699              	.LBB77:
 700              	.LBB70:
 701              		.loc 3 271 0
 702 0074 FFF7FEFF 		bl	chSemSignalI
 703              	.LVL37:
 704 0078 ECE7     		b	.L48
 705              	.LVL38:
 706              	.L56:
 707              	.LBE70:
 708              	.LBE77:
 709              		.loc 1 86 0
 710 007a FFF7FEFF 		bl	__stack_chk_fail
 711              	.LVL39:
 712              	.L58:
 713 007e 00BF     		.align	2
 714              	.L57:
 715 0080 00000000 		.word	__stack_chk_guard
 716 0084 00000000 		.word	.LANCHOR4
 717 0088 00000000 		.word	.LANCHOR3
 718 008c 00000000 		.word	.LANCHOR0
 719              		.cfi_endproc
 720              	.LFE259:
 721              		.size	adc_cb, .-adc_cb
 722              		.section	.text.proximity_start,"ax",%progbits
 723              		.align	1
 724              		.p2align 4,,15
 725              		.global	proximity_start
 726              		.syntax unified
 727              		.thumb
 728              		.thumb_func
 729              		.fpu fpv4-sp-d16
 730              		.type	proximity_start, %function
 731              	proximity_start:
 732              	.LFB263:
 733              		.loc 1 294 0
 734              		.cfi_startproc
 735              		@ args = 0, pretend = 0, frame = 8
 736              		@ frame_needed = 0, uses_anonymous_args = 0
 737 0000 70B5     		push	{r4, r5, r6, lr}
 738              		.cfi_def_cfa_offset 16
 739              		.cfi_offset 4, -16
 740              		.cfi_offset 5, -12
 741              		.cfi_offset 6, -8
ARM GAS  /tmp/ccQOaqRM.s 			page 14


 742              		.cfi_offset 14, -4
 743              		.loc 1 295 0
 744 0002 1F4D     		ldr	r5, .L65
 745              		.loc 1 294 0
 746 0004 1F4C     		ldr	r4, .L65+4
 747              		.loc 1 295 0
 748 0006 2E78     		ldrb	r6, [r5]	@ zero_extendqisi2
 749              		.loc 1 294 0
 750 0008 2368     		ldr	r3, [r4]
 751 000a 84B0     		sub	sp, sp, #16
 752              		.cfi_def_cfa_offset 32
 753              		.loc 1 295 0
 754 000c 012E     		cmp	r6, #1
 755              		.loc 1 294 0
 756 000e 0393     		str	r3, [sp, #12]
 757              		.loc 1 295 0
 758 0010 05D0     		beq	.L63
 759              	.L59:
 760              		.loc 1 332 0
 761 0012 039A     		ldr	r2, [sp, #12]
 762 0014 2368     		ldr	r3, [r4]
 763 0016 9A42     		cmp	r2, r3
 764 0018 2FD1     		bne	.L64
 765 001a 04B0     		add	sp, sp, #16
 766              		.cfi_remember_state
 767              		.cfi_def_cfa_offset 16
 768              		@ sp needed
 769 001c 70BD     		pop	{r4, r5, r6, pc}
 770              	.L63:
 771              		.cfi_restore_state
 772              		.loc 1 317 0
 773 001e 0021     		movs	r1, #0
 774 0020 2846     		mov	r0, r5
 775 0022 FFF7FEFF 		bl	adcStart
 776              	.LVL40:
 777              		.loc 1 318 0
 778 0026 2846     		mov	r0, r5
 779 0028 FFF7FEFF 		bl	adcAcquireBus
 780              	.LVL41:
 781              		.loc 1 320 0
 782 002c 3346     		mov	r3, r6
 783 002e 2846     		mov	r0, r5
 784 0030 154A     		ldr	r2, .L65+8
 785 0032 1649     		ldr	r1, .L65+12
 786 0034 FFF7FEFF 		bl	adcStartConversion
 787              	.LVL42:
 788              		.loc 1 323 0
 789 0038 1549     		ldr	r1, .L65+16
 790 003a 1648     		ldr	r0, .L65+20
 791 003c FFF7FEFF 		bl	pwmStart
 792              	.LVL43:
 793              		.loc 1 325 0
 794 0040 4FF49672 		mov	r2, #300
 795 0044 0021     		movs	r1, #0
 796 0046 1348     		ldr	r0, .L65+20
 797 0048 FFF7FEFF 		bl	pwmEnableChannel
 798              	.LVL44:
ARM GAS  /tmp/ccQOaqRM.s 			page 15


 799              		.loc 1 326 0
 800 004c 0021     		movs	r1, #0
 801 004e 1148     		ldr	r0, .L65+20
 802 0050 FFF7FEFF 		bl	pwmEnableChannelNotification
 803              	.LVL45:
 804              		.loc 1 327 0
 805 0054 0F48     		ldr	r0, .L65+20
 806 0056 FFF7FEFF 		bl	pwmEnablePeriodicNotification
 807              	.LVL46:
 808              		.loc 1 328 0
 809 005a 3146     		mov	r1, r6
 810 005c 4FF48272 		mov	r2, #260
 811 0060 0C48     		ldr	r0, .L65+20
 812 0062 FFF7FEFF 		bl	pwmEnableChannel
 813              	.LVL47:
 814              		.loc 1 330 0
 815 0066 0023     		movs	r3, #0
 816 0068 0093     		str	r3, [sp]
 817 006a 4022     		movs	r2, #64
 818 006c 0A4B     		ldr	r3, .L65+24
 819 006e 0B48     		ldr	r0, .L65+28
 820 0070 4FF41E71 		mov	r1, #632
 821 0074 FFF7FEFF 		bl	chThdCreateStatic
 822              	.LVL48:
 823 0078 CBE7     		b	.L59
 824              	.L64:
 825              		.loc 1 332 0
 826 007a FFF7FEFF 		bl	__stack_chk_fail
 827              	.LVL49:
 828              	.L66:
 829 007e 00BF     		.align	2
 830              	.L65:
 831 0080 00000000 		.word	ADCD1
 832 0084 00000000 		.word	__stack_chk_guard
 833 0088 00000000 		.word	.LANCHOR9
 834 008c 00000000 		.word	.LANCHOR10
 835 0090 00000000 		.word	.LANCHOR11
 836 0094 00000000 		.word	PWMD2
 837 0098 00000000 		.word	proximity_thd
 838 009c 00000000 		.word	.LANCHOR12
 839              		.cfi_endproc
 840              	.LFE263:
 841              		.size	proximity_start, .-proximity_start
 842              		.section	.text.calibrate_ir,"ax",%progbits
 843              		.align	1
 844              		.p2align 4,,15
 845              		.global	calibrate_ir
 846              		.syntax unified
 847              		.thumb
 848              		.thumb_func
 849              		.fpu fpv4-sp-d16
 850              		.type	calibrate_ir, %function
 851              	calibrate_ir:
 852              	.LFB264:
 853              		.loc 1 334 0
 854              		.cfi_startproc
 855              		@ args = 0, pretend = 0, frame = 8
ARM GAS  /tmp/ccQOaqRM.s 			page 16


 856              		@ frame_needed = 0, uses_anonymous_args = 0
 857 0000 30B5     		push	{r4, r5, lr}
 858              		.cfi_def_cfa_offset 12
 859              		.cfi_offset 4, -12
 860              		.cfi_offset 5, -8
 861              		.cfi_offset 14, -4
 862 0002 0C4D     		ldr	r5, .L73
 863              		.loc 1 335 0
 864 0004 0C4A     		ldr	r2, .L73+4
 865              		.loc 1 334 0
 866 0006 2B68     		ldr	r3, [r5]
 867              		.loc 1 336 0
 868 0008 0C4C     		ldr	r4, .L73+8
 869              		.loc 1 334 0
 870 000a 83B0     		sub	sp, sp, #12
 871              		.cfi_def_cfa_offset 24
 872              		.loc 1 335 0
 873 000c 0021     		movs	r1, #0
 874              		.loc 1 334 0
 875 000e 0193     		str	r3, [sp, #4]
 876              		.loc 1 336 0
 877 0010 0123     		movs	r3, #1
 878              		.loc 1 335 0
 879 0012 1170     		strb	r1, [r2]
 880              		.loc 1 336 0
 881 0014 2370     		strb	r3, [r4]
 882              	.L68:
 883              		.loc 1 338 0
 884 0016 1420     		movs	r0, #20
 885 0018 FFF7FEFF 		bl	chThdSleep
 886              	.LVL50:
 887              		.loc 1 337 0
 888 001c 2378     		ldrb	r3, [r4]	@ zero_extendqisi2
 889 001e 002B     		cmp	r3, #0
 890 0020 F9D1     		bne	.L68
 891              		.loc 1 340 0
 892 0022 019A     		ldr	r2, [sp, #4]
 893 0024 2B68     		ldr	r3, [r5]
 894 0026 9A42     		cmp	r2, r3
 895 0028 01D1     		bne	.L72
 896 002a 03B0     		add	sp, sp, #12
 897              		.cfi_remember_state
 898              		.cfi_def_cfa_offset 12
 899              		@ sp needed
 900 002c 30BD     		pop	{r4, r5, pc}
 901              	.L72:
 902              		.cfi_restore_state
 903 002e FFF7FEFF 		bl	__stack_chk_fail
 904              	.LVL51:
 905              	.L74:
 906 0032 00BF     		.align	2
 907              	.L73:
 908 0034 00000000 		.word	__stack_chk_guard
 909 0038 00000000 		.word	.LANCHOR6
 910 003c 00000000 		.word	.LANCHOR5
 911              		.cfi_endproc
 912              	.LFE264:
ARM GAS  /tmp/ccQOaqRM.s 			page 17


 913              		.size	calibrate_ir, .-calibrate_ir
 914              		.section	.text.get_prox,"ax",%progbits
 915              		.align	1
 916              		.p2align 4,,15
 917              		.global	get_prox
 918              		.syntax unified
 919              		.thumb
 920              		.thumb_func
 921              		.fpu fpv4-sp-d16
 922              		.type	get_prox, %function
 923              	get_prox:
 924              	.LFB265:
 925              		.loc 1 342 0
 926              		.cfi_startproc
 927              		@ args = 0, pretend = 0, frame = 8
 928              		@ frame_needed = 0, uses_anonymous_args = 0
 929              	.LVL52:
 930 0000 00B5     		push	{lr}
 931              		.cfi_def_cfa_offset 4
 932              		.cfi_offset 14, -4
 933 0002 0A4B     		ldr	r3, .L81
 934 0004 83B0     		sub	sp, sp, #12
 935              		.cfi_def_cfa_offset 16
 936              		.loc 1 342 0
 937 0006 1A68     		ldr	r2, [r3]
 938 0008 0192     		str	r2, [sp, #4]
 939              		.loc 1 343 0
 940 000a 0728     		cmp	r0, #7
 941              		.loc 1 346 0
 942 000c 9BBF     		ittet	ls
 943 000e 084A     		ldrls	r2, .L81+4
 944 0010 1030     		addls	r0, r0, #16
 945              	.LVL53:
 946              		.loc 1 344 0
 947 0012 0020     		movhi	r0, #0
 948              		.loc 1 346 0
 949 0014 52F82000 		ldrls	r0, [r2, r0, lsl #2]
 950              		.loc 1 348 0
 951 0018 019A     		ldr	r2, [sp, #4]
 952 001a 1B68     		ldr	r3, [r3]
 953 001c 9A42     		cmp	r2, r3
 954 001e 02D1     		bne	.L80
 955 0020 03B0     		add	sp, sp, #12
 956              		.cfi_remember_state
 957              		.cfi_def_cfa_offset 4
 958              		@ sp needed
 959 0022 5DF804FB 		ldr	pc, [sp], #4
 960              	.L80:
 961              		.cfi_restore_state
 962 0026 FFF7FEFF 		bl	__stack_chk_fail
 963              	.LVL54:
 964              	.L82:
 965 002a 00BF     		.align	2
 966              	.L81:
 967 002c 00000000 		.word	__stack_chk_guard
 968 0030 00000000 		.word	.LANCHOR2
 969              		.cfi_endproc
ARM GAS  /tmp/ccQOaqRM.s 			page 18


 970              	.LFE265:
 971              		.size	get_prox, .-get_prox
 972              		.section	.text.get_calibrated_prox,"ax",%progbits
 973              		.align	1
 974              		.p2align 4,,15
 975              		.global	get_calibrated_prox
 976              		.syntax unified
 977              		.thumb
 978              		.thumb_func
 979              		.fpu fpv4-sp-d16
 980              		.type	get_calibrated_prox, %function
 981              	get_calibrated_prox:
 982              	.LFB266:
 983              		.loc 1 350 0
 984              		.cfi_startproc
 985              		@ args = 0, pretend = 0, frame = 8
 986              		@ frame_needed = 0, uses_anonymous_args = 0
 987              	.LVL55:
 988 0000 10B5     		push	{r4, lr}
 989              		.cfi_def_cfa_offset 8
 990              		.cfi_offset 4, -8
 991              		.cfi_offset 14, -4
 992 0002 0E4A     		ldr	r2, .L89
 993 0004 82B0     		sub	sp, sp, #8
 994              		.cfi_def_cfa_offset 16
 995              		.loc 1 350 0
 996 0006 1368     		ldr	r3, [r2]
 997 0008 0193     		str	r3, [sp, #4]
 998              		.loc 1 352 0
 999 000a 0728     		cmp	r0, #7
 1000 000c 11D8     		bhi	.L86
 1001              	.LVL56:
 1002              		.loc 1 355 0
 1003 000e 0C49     		ldr	r1, .L89+4
 1004 0010 00F11803 		add	r3, r0, #24
 1005              	.LVL57:
 1006 0014 00F11004 		add	r4, r0, #16
 1007              	.LVL58:
 1008 0018 51F82330 		ldr	r3, [r1, r3, lsl #2]
 1009              	.LVL59:
 1010 001c 51F82400 		ldr	r0, [r1, r4, lsl #2]
 1011              	.LVL60:
 1012 0020 C01A     		subs	r0, r0, r3
 1013 0022 20EAE070 		bic	r0, r0, r0, asr #31
 1014              	.LVL61:
 1015              	.L83:
 1016              		.loc 1 362 0
 1017 0026 0199     		ldr	r1, [sp, #4]
 1018 0028 1368     		ldr	r3, [r2]
 1019 002a 9942     		cmp	r1, r3
 1020 002c 03D1     		bne	.L88
 1021 002e 02B0     		add	sp, sp, #8
 1022              		.cfi_remember_state
 1023              		.cfi_def_cfa_offset 8
 1024              		@ sp needed
 1025 0030 10BD     		pop	{r4, pc}
 1026              	.LVL62:
ARM GAS  /tmp/ccQOaqRM.s 			page 19


 1027              	.L86:
 1028              		.cfi_restore_state
 1029              		.loc 1 353 0
 1030 0032 0020     		movs	r0, #0
 1031              	.LVL63:
 1032 0034 F7E7     		b	.L83
 1033              	.L88:
 1034              		.loc 1 362 0
 1035 0036 FFF7FEFF 		bl	__stack_chk_fail
 1036              	.LVL64:
 1037              	.L90:
 1038 003a 00BF     		.align	2
 1039              	.L89:
 1040 003c 00000000 		.word	__stack_chk_guard
 1041 0040 00000000 		.word	.LANCHOR2
 1042              		.cfi_endproc
 1043              	.LFE266:
 1044              		.size	get_calibrated_prox, .-get_calibrated_prox
 1045              		.section	.text.get_ambient_light,"ax",%progbits
 1046              		.align	1
 1047              		.p2align 4,,15
 1048              		.global	get_ambient_light
 1049              		.syntax unified
 1050              		.thumb
 1051              		.thumb_func
 1052              		.fpu fpv4-sp-d16
 1053              		.type	get_ambient_light, %function
 1054              	get_ambient_light:
 1055              	.LFB267:
 1056              		.loc 1 364 0
 1057              		.cfi_startproc
 1058              		@ args = 0, pretend = 0, frame = 8
 1059              		@ frame_needed = 0, uses_anonymous_args = 0
 1060              	.LVL65:
 1061 0000 00B5     		push	{lr}
 1062              		.cfi_def_cfa_offset 4
 1063              		.cfi_offset 14, -4
 1064 0002 0A4B     		ldr	r3, .L97
 1065 0004 83B0     		sub	sp, sp, #12
 1066              		.cfi_def_cfa_offset 16
 1067              		.loc 1 364 0
 1068 0006 1A68     		ldr	r2, [r3]
 1069 0008 0192     		str	r2, [sp, #4]
 1070              		.loc 1 365 0
 1071 000a 0728     		cmp	r0, #7
 1072              		.loc 1 368 0
 1073 000c 9CBF     		itt	ls
 1074 000e 084A     		ldrls	r2, .L97+4
 1075 0010 52F82000 		ldrls	r0, [r2, r0, lsl #2]
 1076              	.LVL66:
 1077              		.loc 1 370 0
 1078 0014 019A     		ldr	r2, [sp, #4]
 1079 0016 1B68     		ldr	r3, [r3]
 1080              		.loc 1 366 0
 1081 0018 88BF     		it	hi
 1082 001a 0020     		movhi	r0, #0
 1083              		.loc 1 370 0
ARM GAS  /tmp/ccQOaqRM.s 			page 20


 1084 001c 9A42     		cmp	r2, r3
 1085 001e 02D1     		bne	.L96
 1086 0020 03B0     		add	sp, sp, #12
 1087              		.cfi_remember_state
 1088              		.cfi_def_cfa_offset 4
 1089              		@ sp needed
 1090 0022 5DF804FB 		ldr	pc, [sp], #4
 1091              	.L96:
 1092              		.cfi_restore_state
 1093 0026 FFF7FEFF 		bl	__stack_chk_fail
 1094              	.LVL67:
 1095              	.L98:
 1096 002a 00BF     		.align	2
 1097              	.L97:
 1098 002c 00000000 		.word	__stack_chk_guard
 1099 0030 00000000 		.word	.LANCHOR2
 1100              		.cfi_endproc
 1101              	.LFE267:
 1102              		.size	get_ambient_light, .-get_ambient_light
 1103              		.section	.bss.adc2_proximity_samples,"aw",%nobits
 1104              		.align	2
 1105              		.set	.LANCHOR9,. + 0
 1106              		.type	adc2_proximity_samples, %object
 1107              		.size	adc2_proximity_samples, 32
 1108              	adc2_proximity_samples:
 1109 0000 00000000 		.space	32
 1109      00000000 
 1109      00000000 
 1109      00000000 
 1109      00000000 
 1110              		.section	.bss.adc2_values,"aw",%nobits
 1111              		.align	2
 1112              		.set	.LANCHOR4,. + 0
 1113              		.type	adc2_values, %object
 1114              		.size	adc2_values, 64
 1115              	adc2_values:
 1116 0000 00000000 		.space	64
 1116      00000000 
 1116      00000000 
 1116      00000000 
 1116      00000000 
 1117              		.section	.bss.calibrationInProgress,"aw",%nobits
 1118              		.set	.LANCHOR5,. + 0
 1119              		.type	calibrationInProgress, %object
 1120              		.size	calibrationInProgress, 1
 1121              	calibrationInProgress:
 1122 0000 00       		.space	1
 1123              		.section	.bss.calibrationNumSamples,"aw",%nobits
 1124              		.set	.LANCHOR8,. + 0
 1125              		.type	calibrationNumSamples, %object
 1126              		.size	calibrationNumSamples, 1
 1127              	calibrationNumSamples:
 1128 0000 00       		.space	1
 1129              		.section	.bss.calibrationState,"aw",%nobits
 1130              		.set	.LANCHOR6,. + 0
 1131              		.type	calibrationState, %object
 1132              		.size	calibrationState, 1
ARM GAS  /tmp/ccQOaqRM.s 			page 21


 1133              	calibrationState:
 1134 0000 00       		.space	1
 1135              		.section	.bss.calibrationSum,"aw",%nobits
 1136              		.align	2
 1137              		.set	.LANCHOR7,. + 0
 1138              		.type	calibrationSum, %object
 1139              		.size	calibrationSum, 32
 1140              	calibrationSum:
 1141 0000 00000000 		.space	32
 1141      00000000 
 1141      00000000 
 1141      00000000 
 1141      00000000 
 1142              		.section	.bss.prox_values,"aw",%nobits
 1143              		.align	2
 1144              		.set	.LANCHOR2,. + 0
 1145              		.type	prox_values, %object
 1146              		.size	prox_values, 128
 1147              	prox_values:
 1148 0000 00000000 		.space	128
 1148      00000000 
 1148      00000000 
 1148      00000000 
 1148      00000000 
 1149              		.section	.bss.proximity_thd_wa,"aw",%nobits
 1150              		.align	3
 1151              		.set	.LANCHOR12,. + 0
 1152              		.type	proximity_thd_wa, %object
 1153              		.size	proximity_thd_wa, 632
 1154              	proximity_thd_wa:
 1155 0000 00000000 		.space	632
 1155      00000000 
 1155      00000000 
 1155      00000000 
 1155      00000000 
 1156              		.section	.bss.pulseSeqState,"aw",%nobits
 1157              		.set	.LANCHOR0,. + 0
 1158              		.type	pulseSeqState, %object
 1159              		.size	pulseSeqState, 1
 1160              	pulseSeqState:
 1161 0000 00       		.space	1
 1162              		.section	.data.adc2_ready,"aw",%progbits
 1163              		.align	2
 1164              		.set	.LANCHOR3,. + 0
 1165              		.type	adc2_ready, %object
 1166              		.size	adc2_ready, 12
 1167              	adc2_ready:
 1168 0000 00000000 		.word	adc2_ready
 1169 0004 00000000 		.word	adc2_ready
 1170 0008 00000000 		.word	0
 1171              		.section	.rodata.__FUNCTION__.12093,"a",%progbits
 1172              		.align	2
 1173              		.set	.LANCHOR1,. + 0
 1174              		.type	__FUNCTION__.12093, %object
 1175              		.size	__FUNCTION__.12093, 14
 1176              	__FUNCTION__.12093:
 1177 0000 70726F78 		.ascii	"proximity_thd\000"
ARM GAS  /tmp/ccQOaqRM.s 			page 22


 1177      696D6974 
 1177      795F7468 
 1177      6400
 1178              		.section	.rodata.adcgrpcfg2,"a",%progbits
 1179              		.align	2
 1180              		.set	.LANCHOR10,. + 0
 1181              		.type	adcgrpcfg2, %object
 1182              		.size	adcgrpcfg2, 40
 1183              	adcgrpcfg2:
 1184 0000 01       		.byte	1
 1185 0001 00       		.space	1
 1186 0002 1000     		.short	16
 1187 0004 00000000 		.word	adc_cb
 1188 0008 00000000 		.word	0
 1189 000c 00280000 		.word	10240
 1190 0010 00000023 		.word	587202560
 1191 0014 6DDB0200 		.word	187245
 1192 0018 6DDBB62D 		.word	766958445
 1193 001c 6FBDF500 		.word	16104815
 1194 0020 0D39E514 		.word	350566669
 1195 0024 2CB1D410 		.word	282374444
 1196              		.section	.rodata.proximity_thd.str1.4,"aMS",%progbits,1
 1197              		.align	2
 1198              	.LC0:
 1199 0000 2F70726F 		.ascii	"/proximity\000"
 1199      78696D69 
 1199      747900
 1200              		.section	.rodata.pwmcfg_proximity.12132,"a",%progbits
 1201              		.align	2
 1202              		.set	.LANCHOR11,. + 0
 1203              		.type	pwmcfg_proximity.12132, %object
 1204              		.size	pwmcfg_proximity.12132, 52
 1205              	pwmcfg_proximity.12132:
 1206 0000 40420F00 		.word	1000000
 1207 0004 E2040000 		.word	1250
 1208 0008 00000000 		.word	pwm_reset_cb
 1209 000c 01000000 		.word	1
 1210 0010 00000000 		.word	pwm_ch1_cb
 1211 0014 01000000 		.word	1
 1212 0018 00000000 		.word	0
 1213 001c 00000000 		.word	0
 1214 0020 00000000 		.word	0
 1215 0024 00000000 		.word	0
 1216 0028 00000000 		.word	0
 1217 002c 00000000 		.word	0
 1218 0030 00000000 		.space	4
 1219              		.text
 1220              	.Letext0:
 1221              		.file 6 "/home/uos/Documents/Epuck2_groupe/Eclipse_e-puck2/Tools/gcc-arm-none-eabi-7-2017-q4-major
 1222              		.file 7 "/home/uos/Documents/Epuck2_groupe/Eclipse_e-puck2/Tools/gcc-arm-none-eabi-7-2017-q4-major
 1223              		.file 8 "/home/uos/Documents/Epuck2_groupe/Eclipse_e-puck2/Tools/gcc-arm-none-eabi-7-2017-q4-major
 1224              		.file 9 "/home/uos/Documents/Epuck2_groupe/Eclipse_e-puck2/Tools/gcc-arm-none-eabi-7-2017-q4-major
 1225              		.file 10 "/home/uos/Documents/Epuck2_groupe/Eclipse_e-puck2/Tools/gcc-arm-none-eabi-7-2017-q4-majo
 1226              		.file 11 "/home/uos/Documents/Epuck2_groupe/Eclipse_e-puck2/Tools/gcc-arm-none-eabi-7-2017-q4-majo
 1227              		.file 12 "../e-puck2_main-processor/ChibiOS//os/rt/ports/ARMCMx/compilers/GCC/chtypes.h"
 1228              		.file 13 "../e-puck2_main-processor/ChibiOS//os/rt/include/chsystypes.h"
 1229              		.file 14 "../e-puck2_main-processor/ChibiOS//os/rt/include/chschd.h"
ARM GAS  /tmp/ccQOaqRM.s 			page 23


 1230              		.file 15 "../e-puck2_main-processor/ChibiOS//os/ext/CMSIS/include/core_cm4.h"
 1231              		.file 16 "../e-puck2_main-processor/ChibiOS//os/ext/CMSIS/ST/system_stm32f4xx.h"
 1232              		.file 17 "../e-puck2_main-processor/ChibiOS//os/ext/CMSIS/ST/stm32f407xx.h"
 1233              		.file 18 "../e-puck2_main-processor/ChibiOS//os/rt/ports/ARMCMx/chcore.h"
 1234              		.file 19 "../e-puck2_main-processor/ChibiOS//os/rt/ports/ARMCMx/chcore_v7m.h"
 1235              		.file 20 "../e-puck2_main-processor/ChibiOS//os/rt/include/chdebug.h"
 1236              		.file 21 "../e-puck2_main-processor/ChibiOS//os/rt/include/chtm.h"
 1237              		.file 22 "../e-puck2_main-processor/ChibiOS//os/rt/include/chstats.h"
 1238              		.file 23 "../e-puck2_main-processor/ChibiOS//os/rt/include/chsem.h"
 1239              		.file 24 "../e-puck2_main-processor/ChibiOS//os/rt/include/chmtx.h"
 1240              		.file 25 "../e-puck2_main-processor/ChibiOS//os/rt/include/chcond.h"
 1241              		.file 26 "../e-puck2_main-processor/ChibiOS//os/rt/include/chevents.h"
 1242              		.file 27 "../e-puck2_main-processor/ChibiOS//os/rt/include/chqueues.h"
 1243              		.file 28 "../e-puck2_main-processor/ChibiOS//os/hal/ports/STM32/STM32F4xx/stm32_dma.h"
 1244              		.file 29 "../e-puck2_main-processor/ChibiOS//os/hal/include/hal_ioblock.h"
 1245              		.file 30 "../e-puck2_main-processor/ChibiOS//os/hal/ports/STM32/LLD/GPIOv2/pal_lld.h"
 1246              		.file 31 "../e-puck2_main-processor/ChibiOS//os/hal/include/adc.h"
 1247              		.file 32 "../e-puck2_main-processor/ChibiOS//os/hal/ports/STM32/STM32F4xx/adc_lld.h"
 1248              		.file 33 "../e-puck2_main-processor/ChibiOS//os/hal/include/can.h"
 1249              		.file 34 "../e-puck2_main-processor/ChibiOS//os/hal/ports/STM32/LLD/can_lld.h"
 1250              		.file 35 "../e-puck2_main-processor/ChibiOS//os/hal/include/dac.h"
 1251              		.file 36 "../e-puck2_main-processor/ChibiOS//os/hal/ports/STM32/LLD/DACv1/dac_lld.h"
 1252              		.file 37 "../e-puck2_main-processor/ChibiOS//os/hal/include/ext.h"
 1253              		.file 38 "../e-puck2_main-processor/ChibiOS//os/hal/ports/STM32/LLD/ext_lld.h"
 1254              		.file 39 "../e-puck2_main-processor/ChibiOS//os/hal/include/gpt.h"
 1255              		.file 40 "../e-puck2_main-processor/ChibiOS//os/hal/ports/STM32/LLD/TIMv1/gpt_lld.h"
 1256              		.file 41 "../e-puck2_main-processor/ChibiOS//os/hal/ports/STM32/LLD/TIMv1/stm32_tim.h"
 1257              		.file 42 "../e-puck2_main-processor/ChibiOS//os/hal/include/i2c.h"
 1258              		.file 43 "../e-puck2_main-processor/ChibiOS//os/hal/ports/STM32/LLD/I2Cv1/i2c_lld.h"
 1259              		.file 44 "../e-puck2_main-processor/ChibiOS//os/hal/include/i2s.h"
 1260              		.file 45 "../e-puck2_main-processor/ChibiOS//os/hal/ports/STM32/LLD/SPIv1/i2s_lld.h"
 1261              		.file 46 "../e-puck2_main-processor/ChibiOS//os/hal/include/pwm.h"
 1262              		.file 47 "../e-puck2_main-processor/ChibiOS//os/hal/ports/STM32/LLD/TIMv1/pwm_lld.h"
 1263              		.file 48 "../e-puck2_main-processor/ChibiOS//os/hal/include/serial.h"
 1264              		.file 49 "../e-puck2_main-processor/ChibiOS//os/hal/ports/STM32/LLD/USARTv1/serial_lld.h"
 1265              		.file 50 "../e-puck2_main-processor/ChibiOS//os/hal/include/sdc.h"
 1266              		.file 51 "../e-puck2_main-processor/ChibiOS//os/hal/ports/STM32/LLD/sdc_lld.h"
 1267              		.file 52 "../e-puck2_main-processor/ChibiOS//os/hal/include/spi.h"
 1268              		.file 53 "../e-puck2_main-processor/ChibiOS//os/hal/ports/STM32/LLD/SPIv1/spi_lld.h"
 1269              		.file 54 "../e-puck2_main-processor/ChibiOS//os/hal/include/usb.h"
 1270              		.file 55 "../e-puck2_main-processor/ChibiOS//os/hal/ports/STM32/LLD/OTGv1/usb_lld.h"
 1271              		.file 56 "../e-puck2_main-processor/ChibiOS//os/hal/ports/STM32/LLD/OTGv1/stm32_otg.h"
 1272              		.file 57 "../e-puck2_main-processor/src/sensors/proximity.h"
 1273              		.file 58 "/home/uos/Documents/Epuck2_groupe/Eclipse_e-puck2/Tools/gcc-arm-none-eabi-7-2017-q4-majo
 1274              		.file 59 "../e-puck2_main-processor/src/msgbus/messagebus.h"
 1275              		.file 60 "/home/uos/Documents/Epuck2_groupe/Eclipse_e-puck2/Tools/gcc-arm-none-eabi-7-2017-q4-majo
 1276              		.file 61 "../e-puck2_main-processor/src/parameter/parameter.h"
 1277              		.file 62 "./main.h"
 1278              		.file 63 "../e-puck2_main-processor/ChibiOS//os/rt/include/chthreads.h"
 1279              		.file 64 "<built-in>"