ARM GAS  /tmp/ccl5hICu.s 			page 1


   1              		.cpu cortex-m4
   2              		.eabi_attribute 27, 1
   3              		.eabi_attribute 28, 1
   4              		.eabi_attribute 20, 1
   5              		.eabi_attribute 21, 1
   6              		.eabi_attribute 23, 3
   7              		.eabi_attribute 24, 1
   8              		.eabi_attribute 25, 1
   9              		.eabi_attribute 26, 1
  10              		.eabi_attribute 30, 2
  11              		.eabi_attribute 34, 1
  12              		.eabi_attribute 18, 4
  13              		.file	"ground.c"
  14              		.text
  15              	.Ltext0:
  16              		.cfi_sections	.debug_frame
  17              		.section	.text.ground_thd,"ax",%progbits
  18              		.align	1
  19              		.p2align 4,,15
  20              		.syntax unified
  21              		.thumb
  22              		.thumb_func
  23              		.fpu fpv4-sp-d16
  24              		.type	ground_thd, %function
  25              	ground_thd:
  26              	.LFB260:
  27              		.file 1 "../e-puck2_main-processor/src/sensors/ground.c"
  28              		.loc 1 24 0
  29              		.cfi_startproc
  30              		@ args = 0, pretend = 0, frame = 152
  31              		@ frame_needed = 0, uses_anonymous_args = 0
  32              	.LVL0:
  33 0000 2DE9F04F 		push	{r4, r5, r6, r7, r8, r9, r10, fp, lr}
  34              		.cfi_def_cfa_offset 36
  35              		.cfi_offset 4, -36
  36              		.cfi_offset 5, -32
  37              		.cfi_offset 6, -28
  38              		.cfi_offset 7, -24
  39              		.cfi_offset 8, -20
  40              		.cfi_offset 9, -16
  41              		.cfi_offset 10, -12
  42              		.cfi_offset 11, -8
  43              		.cfi_offset 14, -4
  44              	.LBB58:
  45              	.LBB59:
  46              		.file 2 "../e-puck2_main-processor/ChibiOS//os/rt/include/chregistry.h"
  47              		.loc 2 135 0
  48 0004 544D     		ldr	r5, .L11
  49              	.LBE59:
  50              	.LBE58:
  51              		.loc 1 24 0
  52 0006 DFF86491 		ldr	r9, .L11+20
  53              	.LBB61:
  54              	.LBB60:
  55              		.loc 2 135 0
  56 000a AB69     		ldr	r3, [r5, #24]
  57 000c 534A     		ldr	r2, .L11+4
ARM GAS  /tmp/ccl5hICu.s 			page 2


  58 000e 9A61     		str	r2, [r3, #24]
  59              	.LBE60:
  60              	.LBE61:
  61              		.loc 1 24 0
  62 0010 A9B0     		sub	sp, sp, #164
  63              		.cfi_def_cfa_offset 200
  64              		.loc 1 29 0
  65 0012 05AC     		add	r4, sp, #20
  66              		.loc 1 30 0
  67 0014 03AB     		add	r3, sp, #12
  68              		.loc 1 24 0
  69 0016 D9F80000 		ldr	r0, [r9]
  70              	.LVL1:
  71 001a 2790     		str	r0, [sp, #156]
  72              		.loc 1 31 0
  73 001c 1422     		movs	r2, #20
  74 001e 2146     		mov	r1, r4
  75 0020 0092     		str	r2, [sp]
  76 0022 0AA8     		add	r0, sp, #40
  77 0024 1A46     		mov	r2, r3
  78              		.loc 1 29 0
  79 0026 CDE90544 		strd	r4, r4, [sp, #20]
  80              		.loc 1 30 0
  81 002a CDE90333 		strd	r3, r3, [sp, #12]
  82              		.loc 1 29 0
  83 002e 0024     		movs	r4, #0
  84              		.loc 1 31 0
  85 0030 4B4B     		ldr	r3, .L11+8
  86              		.loc 1 29 0
  87 0032 0994     		str	r4, [sp, #36]
  88 0034 CDE90744 		strd	r4, r4, [sp, #28]
  89              		.loc 1 31 0
  90 0038 FFF7FEFF 		bl	messagebus_topic_init
  91              	.LVL2:
  92              		.loc 1 32 0
  93 003c 494A     		ldr	r2, .L11+12
  94 003e 4A48     		ldr	r0, .L11+16
  95 0040 0AA9     		add	r1, sp, #40
  96 0042 FFF7FEFF 		bl	messagebus_advertise_topic
  97              	.LVL3:
  98              	.LBB62:
  99              	.LBB63:
 100              		.file 3 "../e-puck2_main-processor/ChibiOS//os/rt/include/chthreads.h"
 101              		.loc 3 233 0
 102 0046 AB69     		ldr	r3, [r5, #24]
 103              	.LBE63:
 104              	.LBE62:
 105              		.loc 1 36 0
 106 0048 93F82130 		ldrb	r3, [r3, #33]	@ zero_extendqisi2
 107 004c 5A07     		lsls	r2, r3, #29
 108 004e 79D4     		bmi	.L1
 109 0050 434C     		ldr	r4, .L11+8
 110              	.LBB65:
 111              	.LBB66:
 112              	.LBB67:
 113              	.LBB68:
 114              		.file 4 "../e-puck2_main-processor/ChibiOS//os/rt/include/chsys.h"
ARM GAS  /tmp/ccl5hICu.s 			page 3


 115              		.loc 4 367 0
 116 0052 DFF81CA1 		ldr	r10, .L11+24
 117              	.LBE68:
 118              	.LBE67:
 119              	.LBE66:
 120              	.LBE65:
 121              		.loc 1 53 0
 122 0056 A046     		mov	r8, r4
 123              	.LBB82:
 124              	.LBB81:
 125              	.LBB73:
 126              	.LBB74:
 127              	.LBB75:
 128              	.LBB76:
 129              	.LBB77:
 130              		.file 5 "../e-puck2_main-processor/ChibiOS//os/ext/CMSIS/include/core_cmFunc.h"
 131              		.loc 5 546 0
 132 0058 2027     		movs	r7, #32
 133              	.L4:
 134              	.LVL4:
 135              		.syntax unified
 136              	@ 546 "../e-puck2_main-processor/ChibiOS//os/ext/CMSIS/include/core_cmFunc.h" 1
 137 005a 87F31188 		MSR basepri, r7
 138              	@ 0 "" 2
 139              	.LVL5:
 140              		.thumb
 141              		.syntax unified
 142              	.LBE77:
 143              	.LBE76:
 144              	.LBE75:
 145              		.loc 4 349 0
 146 005e FFF7FEFF 		bl	_stats_start_measure_crit_thd
 147              	.LVL6:
 148              		.loc 4 350 0
 149 0062 FFF7FEFF 		bl	_dbg_check_lock
 150              	.LVL7:
 151              	.LBE74:
 152              	.LBE73:
 153              	.LBB78:
 154              	.LBB79:
 155              		.file 6 "../e-puck2_main-processor/ChibiOS//os/rt/include/chvt.h"
 156              		.loc 6 231 0
 157 0066 AE6A     		ldr	r6, [r5, #40]
 158              	.LBE79:
 159              	.LBE78:
 160              	.LBB80:
 161              	.LBB72:
 162              		.loc 4 360 0
 163 0068 FFF7FEFF 		bl	_dbg_check_unlock
 164              	.LVL8:
 165              		.loc 4 361 0
 166 006c FFF7FEFF 		bl	_stats_stop_measure_crit_thd
 167              	.LVL9:
 168              		.loc 4 367 0
 169 0070 2B68     		ldr	r3, [r5]
 170 0072 AB42     		cmp	r3, r5
 171 0074 07D0     		beq	.L3
ARM GAS  /tmp/ccl5hICu.s 			page 4


 172 0076 AA69     		ldr	r2, [r5, #24]
 173 0078 9B68     		ldr	r3, [r3, #8]
 174 007a 9268     		ldr	r2, [r2, #8]
 175 007c 9A42     		cmp	r2, r3
 176 007e 02D2     		bcs	.L3
 177 0080 5046     		mov	r0, r10
 178 0082 FFF7FEFF 		bl	chSysHalt
 179              	.LVL10:
 180              	.L3:
 181              	.LBB69:
 182              	.LBB70:
 183              	.LBB71:
 184              		.loc 5 546 0
 185 0086 0021     		movs	r1, #0
 186              		.syntax unified
 187              	@ 546 "../e-puck2_main-processor/ChibiOS//os/ext/CMSIS/include/core_cmFunc.h" 1
 188 0088 81F31188 		MSR basepri, r1
 189              	@ 0 "" 2
 190              	.LVL11:
 191              		.thumb
 192              		.syntax unified
 193              	.LBE71:
 194              	.LBE70:
 195              	.LBE69:
 196              	.LBE72:
 197              	.LBE80:
 198              	.LBE81:
 199              	.LBE82:
 200              		.loc 1 39 0
 201 008c 1523     		movs	r3, #21
 202 008e 21AA     		add	r2, sp, #132
 203 0090 6020     		movs	r0, #96
 204 0092 FFF7FEFF 		bl	read_reg_multi
 205              	.LVL12:
 206              		.loc 1 43 0
 207 0096 9DF888C0 		ldrb	ip, [sp, #136]	@ zero_extendqisi2
 208 009a 9DF88920 		ldrb	r2, [sp, #137]	@ zero_extendqisi2
 209              		.loc 1 41 0
 210 009e 9DF884B0 		ldrb	fp, [sp, #132]	@ zero_extendqisi2
 211 00a2 9DF88500 		ldrb	r0, [sp, #133]	@ zero_extendqisi2
 212              		.loc 1 42 0
 213 00a6 9DF886E0 		ldrb	lr, [sp, #134]	@ zero_extendqisi2
 214              		.loc 1 44 0
 215 00aa 9DF88A30 		ldrb	r3, [sp, #138]	@ zero_extendqisi2
 216              		.loc 1 42 0
 217 00ae 9DF88710 		ldrb	r1, [sp, #135]	@ zero_extendqisi2
 218              		.loc 1 43 0
 219 00b2 02EB0C22 		add	r2, r2, ip, lsl #8
 220              		.loc 1 44 0
 221 00b6 9DF88BC0 		ldrb	ip, [sp, #139]	@ zero_extendqisi2
 222              		.loc 1 43 0
 223 00ba E281     		strh	r2, [r4, #14]	@ movhi
 224              		.loc 1 41 0
 225 00bc 00EB0B20 		add	r0, r0, fp, lsl #8
 226              		.loc 1 42 0
 227 00c0 01EB0E21 		add	r1, r1, lr, lsl #8
 228              		.loc 1 45 0
ARM GAS  /tmp/ccl5hICu.s 			page 5


 229 00c4 9DF88CB0 		ldrb	fp, [sp, #140]	@ zero_extendqisi2
 230              		.loc 1 46 0
 231 00c8 9DF88EE0 		ldrb	lr, [sp, #142]	@ zero_extendqisi2
 232              		.loc 1 41 0
 233 00cc 6081     		strh	r0, [r4, #10]	@ movhi
 234              		.loc 1 44 0
 235 00ce 0CEB032C 		add	ip, ip, r3, lsl #8
 236              		.loc 1 46 0
 237 00d2 9DF88F00 		ldrb	r0, [sp, #143]	@ zero_extendqisi2
 238              		.loc 1 45 0
 239 00d6 9DF88D30 		ldrb	r3, [sp, #141]	@ zero_extendqisi2
 240              		.loc 1 42 0
 241 00da A181     		strh	r1, [r4, #12]	@ movhi
 242              		.loc 1 45 0
 243 00dc 03EB0B23 		add	r3, r3, fp, lsl #8
 244              		.loc 1 46 0
 245 00e0 00EB0E20 		add	r0, r0, lr, lsl #8
 246              		.loc 1 48 0
 247 00e4 9DF891B0 		ldrb	fp, [sp, #145]	@ zero_extendqisi2
 248              		.loc 1 49 0
 249 00e8 9DF893E0 		ldrb	lr, [sp, #147]	@ zero_extendqisi2
 250              		.loc 1 48 0
 251 00ec 9DF89210 		ldrb	r1, [sp, #146]	@ zero_extendqisi2
 252              		.loc 1 49 0
 253 00f0 9DF89420 		ldrb	r2, [sp, #148]	@ zero_extendqisi2
 254              		.loc 1 44 0
 255 00f4 A4F800C0 		strh	ip, [r4]	@ movhi
 256              		.loc 1 48 0
 257 00f8 01EB0B21 		add	r1, r1, fp, lsl #8
 258              		.loc 1 49 0
 259 00fc 02EB0E22 		add	r2, r2, lr, lsl #8
 260              		.loc 1 50 0
 261 0100 9DF895B0 		ldrb	fp, [sp, #149]	@ zero_extendqisi2
 262              		.loc 1 51 0
 263 0104 9DF897E0 		ldrb	lr, [sp, #151]	@ zero_extendqisi2
 264              		.loc 1 45 0
 265 0108 6380     		strh	r3, [r4, #2]	@ movhi
 266              		.loc 1 50 0
 267 010a 9DF896C0 		ldrb	ip, [sp, #150]	@ zero_extendqisi2
 268              		.loc 1 51 0
 269 010e 9DF89830 		ldrb	r3, [sp, #152]	@ zero_extendqisi2
 270              		.loc 1 46 0
 271 0112 A080     		strh	r0, [r4, #4]	@ movhi
 272              		.loc 1 51 0
 273 0114 03EB0E23 		add	r3, r3, lr, lsl #8
 274              		.loc 1 50 0
 275 0118 0CEB0B2C 		add	ip, ip, fp, lsl #8
 276              		.loc 1 48 0
 277 011c 2182     		strh	r1, [r4, #16]	@ movhi
 278              		.loc 1 49 0
 279 011e 6282     		strh	r2, [r4, #18]	@ movhi
 280              		.loc 1 53 0
 281 0120 4146     		mov	r1, r8
 282 0122 1422     		movs	r2, #20
 283 0124 0AA8     		add	r0, sp, #40
 284              		.loc 1 51 0
 285 0126 2381     		strh	r3, [r4, #8]	@ movhi
ARM GAS  /tmp/ccl5hICu.s 			page 6


 286              		.loc 1 50 0
 287 0128 A4F806C0 		strh	ip, [r4, #6]	@ movhi
 288              		.loc 1 53 0
 289 012c FFF7FEFF 		bl	messagebus_topic_publish
 290              	.LVL13:
 291              		.loc 1 58 0
 292 0130 06F12801 		add	r1, r6, #40
 293 0134 3046     		mov	r0, r6
 294 0136 FFF7FEFF 		bl	chThdSleepUntilWindowed
 295              	.LVL14:
 296              	.LBB83:
 297              	.LBB64:
 298              		.loc 3 233 0
 299 013a AB69     		ldr	r3, [r5, #24]
 300              	.LBE64:
 301              	.LBE83:
 302              		.loc 1 36 0
 303 013c 93F82130 		ldrb	r3, [r3, #33]	@ zero_extendqisi2
 304 0140 5B07     		lsls	r3, r3, #29
 305 0142 8AD5     		bpl	.L4
 306              	.L1:
 307              		.loc 1 61 0
 308 0144 279A     		ldr	r2, [sp, #156]
 309 0146 D9F80030 		ldr	r3, [r9]
 310 014a 9A42     		cmp	r2, r3
 311 014c 02D1     		bne	.L10
 312 014e 29B0     		add	sp, sp, #164
 313              		.cfi_remember_state
 314              		.cfi_def_cfa_offset 36
 315              		@ sp needed
 316 0150 BDE8F08F 		pop	{r4, r5, r6, r7, r8, r9, r10, fp, pc}
 317              	.L10:
 318              		.cfi_restore_state
 319 0154 FFF7FEFF 		bl	__stack_chk_fail
 320              	.LVL15:
 321              	.L12:
 322              		.align	2
 323              	.L11:
 324 0158 00000000 		.word	ch
 325 015c 00000000 		.word	.LANCHOR0
 326 0160 00000000 		.word	.LANCHOR1
 327 0164 00000000 		.word	.LC0
 328 0168 00000000 		.word	bus
 329 016c 00000000 		.word	__stack_chk_guard
 330 0170 00000000 		.word	.LANCHOR2
 331              		.cfi_endproc
 332              	.LFE260:
 333              		.size	ground_thd, .-ground_thd
 334              		.section	.text.ground_start,"ax",%progbits
 335              		.align	1
 336              		.p2align 4,,15
 337              		.global	ground_start
 338              		.syntax unified
 339              		.thumb
 340              		.thumb_func
 341              		.fpu fpv4-sp-d16
 342              		.type	ground_start, %function
ARM GAS  /tmp/ccl5hICu.s 			page 7


 343              	ground_start:
 344              	.LFB261:
 345              		.loc 1 69 0
 346              		.cfi_startproc
 347              		@ args = 0, pretend = 0, frame = 32
 348              		@ frame_needed = 0, uses_anonymous_args = 0
 349 0000 F0B5     		push	{r4, r5, r6, r7, lr}
 350              		.cfi_def_cfa_offset 20
 351              		.cfi_offset 4, -20
 352              		.cfi_offset 5, -16
 353              		.cfi_offset 6, -12
 354              		.cfi_offset 7, -8
 355              		.cfi_offset 14, -4
 356              		.loc 1 74 0
 357 0002 384F     		ldr	r7, .L20
 358              		.loc 1 69 0
 359 0004 384E     		ldr	r6, .L20+4
 360              		.loc 1 74 0
 361 0006 3C78     		ldrb	r4, [r7]	@ zero_extendqisi2
 362              		.loc 1 69 0
 363 0008 3368     		ldr	r3, [r6]
 364 000a 8BB0     		sub	sp, sp, #44
 365              		.cfi_def_cfa_offset 64
 366              		.loc 1 69 0
 367 000c 0993     		str	r3, [sp, #36]
 368              	.LVL16:
 369              		.loc 1 74 0
 370 000e 74B9     		cbnz	r4, .L13
 371              	.LVL17:
 372              		.loc 1 80 0
 373 0010 364D     		ldr	r5, .L20+8
 374 0012 C5E90044 		strd	r4, r4, [r5]
 375              		.loc 1 79 0
 376 0016 C5E90244 		strd	r4, r4, [r5, #8]
 377 001a 2C61     		str	r4, [r5, #16]
 378              	.LVL18:
 379              		.loc 1 83 0
 380 001c FFF7FEFF 		bl	i2c_start
 381              	.LVL19:
 382              		.loc 1 85 0
 383 0020 2146     		mov	r1, r4
 384 0022 1523     		movs	r3, #21
 385 0024 03AA     		add	r2, sp, #12
 386 0026 6020     		movs	r0, #96
 387 0028 FFF7FEFF 		bl	read_reg_multi
 388              	.LVL20:
 389 002c 28B1     		cbz	r0, .L18
 390              	.LVL21:
 391              	.L13:
 392              		.loc 1 104 0
 393 002e 099A     		ldr	r2, [sp, #36]
 394 0030 3368     		ldr	r3, [r6]
 395 0032 9A42     		cmp	r2, r3
 396 0034 54D1     		bne	.L19
 397 0036 0BB0     		add	sp, sp, #44
 398              		.cfi_remember_state
 399              		.cfi_def_cfa_offset 20
ARM GAS  /tmp/ccl5hICu.s 			page 8


 400              		@ sp needed
 401 0038 F0BD     		pop	{r4, r5, r6, r7, pc}
 402              	.LVL22:
 403              	.L18:
 404              		.cfi_restore_state
 405              		.loc 1 89 0
 406 003a 9DF80C10 		ldrb	r1, [sp, #12]	@ zero_extendqisi2
 407 003e 9DF80D20 		ldrb	r2, [sp, #13]	@ zero_extendqisi2
 408              		.loc 1 90 0
 409 0042 9DF80E30 		ldrb	r3, [sp, #14]	@ zero_extendqisi2
 410              		.loc 1 91 0
 411 0046 9DF81040 		ldrb	r4, [sp, #16]	@ zero_extendqisi2
 412              		.loc 1 102 0
 413 004a 0090     		str	r0, [sp]
 414              		.loc 1 89 0
 415 004c 02EB0122 		add	r2, r2, r1, lsl #8
 416              		.loc 1 90 0
 417 0050 9DF80F10 		ldrb	r1, [sp, #15]	@ zero_extendqisi2
 418              		.loc 1 92 0
 419 0054 9DF81200 		ldrb	r0, [sp, #18]	@ zero_extendqisi2
 420              	.LVL23:
 421              		.loc 1 89 0
 422 0058 6A81     		strh	r2, [r5, #10]	@ movhi
 423              		.loc 1 90 0
 424 005a 01EB0321 		add	r1, r1, r3, lsl #8
 425              		.loc 1 91 0
 426 005e 9DF81130 		ldrb	r3, [sp, #17]	@ zero_extendqisi2
 427              		.loc 1 92 0
 428 0062 9DF81320 		ldrb	r2, [sp, #19]	@ zero_extendqisi2
 429              		.loc 1 90 0
 430 0066 A981     		strh	r1, [r5, #12]	@ movhi
 431              		.loc 1 91 0
 432 0068 03EB0423 		add	r3, r3, r4, lsl #8
 433              		.loc 1 93 0
 434 006c 9DF81510 		ldrb	r1, [sp, #21]	@ zero_extendqisi2
 435 0070 9DF81440 		ldrb	r4, [sp, #20]	@ zero_extendqisi2
 436              		.loc 1 91 0
 437 0074 EB81     		strh	r3, [r5, #14]	@ movhi
 438              		.loc 1 92 0
 439 0076 02EB0022 		add	r2, r2, r0, lsl #8
 440              		.loc 1 94 0
 441 007a 9DF81730 		ldrb	r3, [sp, #23]	@ zero_extendqisi2
 442 007e 9DF81600 		ldrb	r0, [sp, #22]	@ zero_extendqisi2
 443              		.loc 1 92 0
 444 0082 2A80     		strh	r2, [r5]	@ movhi
 445              		.loc 1 93 0
 446 0084 01EB0421 		add	r1, r1, r4, lsl #8
 447              		.loc 1 96 0
 448 0088 9DF81A20 		ldrb	r2, [sp, #26]	@ zero_extendqisi2
 449 008c 9DF81940 		ldrb	r4, [sp, #25]	@ zero_extendqisi2
 450              		.loc 1 93 0
 451 0090 6980     		strh	r1, [r5, #2]	@ movhi
 452              		.loc 1 94 0
 453 0092 03EB0023 		add	r3, r3, r0, lsl #8
 454              		.loc 1 97 0
 455 0096 9DF81C10 		ldrb	r1, [sp, #28]	@ zero_extendqisi2
 456 009a 9DF81B00 		ldrb	r0, [sp, #27]	@ zero_extendqisi2
ARM GAS  /tmp/ccl5hICu.s 			page 9


 457              		.loc 1 94 0
 458 009e AB80     		strh	r3, [r5, #4]	@ movhi
 459              		.loc 1 96 0
 460 00a0 02EB0422 		add	r2, r2, r4, lsl #8
 461              		.loc 1 97 0
 462 00a4 01EB0021 		add	r1, r1, r0, lsl #8
 463              		.loc 1 98 0
 464 00a8 9DF81D40 		ldrb	r4, [sp, #29]	@ zero_extendqisi2
 465              		.loc 1 99 0
 466 00ac 9DF81F00 		ldrb	r0, [sp, #31]	@ zero_extendqisi2
 467              		.loc 1 96 0
 468 00b0 2A82     		strh	r2, [r5, #16]	@ movhi
 469              		.loc 1 98 0
 470 00b2 9DF81E30 		ldrb	r3, [sp, #30]	@ zero_extendqisi2
 471              		.loc 1 99 0
 472 00b6 9DF82020 		ldrb	r2, [sp, #32]	@ zero_extendqisi2
 473              		.loc 1 97 0
 474 00ba 6982     		strh	r1, [r5, #18]	@ movhi
 475              		.loc 1 99 0
 476 00bc 02EB0022 		add	r2, r2, r0, lsl #8
 477              		.loc 1 98 0
 478 00c0 03EB0423 		add	r3, r3, r4, lsl #8
 479              		.loc 1 101 0
 480 00c4 0120     		movs	r0, #1
 481              		.loc 1 98 0
 482 00c6 EB80     		strh	r3, [r5, #6]	@ movhi
 483              		.loc 1 99 0
 484 00c8 2A81     		strh	r2, [r5, #8]	@ movhi
 485              		.loc 1 102 0
 486 00ca 094B     		ldr	r3, .L20+12
 487              		.loc 1 101 0
 488 00cc 3870     		strb	r0, [r7]
 489              		.loc 1 102 0
 490 00ce 4022     		movs	r2, #64
 491 00d0 4FF45E71 		mov	r1, #888
 492 00d4 0748     		ldr	r0, .L20+16
 493 00d6 FFF7FEFF 		bl	chThdCreateStatic
 494              	.LVL24:
 495 00da 074B     		ldr	r3, .L20+20
 496 00dc 1860     		str	r0, [r3]
 497 00de A6E7     		b	.L13
 498              	.LVL25:
 499              	.L19:
 500              		.loc 1 104 0
 501 00e0 FFF7FEFF 		bl	__stack_chk_fail
 502              	.LVL26:
 503              	.L21:
 504              		.align	2
 505              	.L20:
 506 00e4 00000000 		.word	.LANCHOR3
 507 00e8 00000000 		.word	__stack_chk_guard
 508 00ec 00000000 		.word	.LANCHOR1
 509 00f0 00000000 		.word	ground_thd
 510 00f4 00000000 		.word	.LANCHOR4
 511 00f8 00000000 		.word	.LANCHOR5
 512              		.cfi_endproc
 513              	.LFE261:
ARM GAS  /tmp/ccl5hICu.s 			page 10


 514              		.size	ground_start, .-ground_start
 515              		.section	.text.ground_stop,"ax",%progbits
 516              		.align	1
 517              		.p2align 4,,15
 518              		.global	ground_stop
 519              		.syntax unified
 520              		.thumb
 521              		.thumb_func
 522              		.fpu fpv4-sp-d16
 523              		.type	ground_stop, %function
 524              	ground_stop:
 525              	.LFB262:
 526              		.loc 1 106 0
 527              		.cfi_startproc
 528              		@ args = 0, pretend = 0, frame = 8
 529              		@ frame_needed = 0, uses_anonymous_args = 0
 530 0000 70B5     		push	{r4, r5, r6, lr}
 531              		.cfi_def_cfa_offset 16
 532              		.cfi_offset 4, -16
 533              		.cfi_offset 5, -12
 534              		.cfi_offset 6, -8
 535              		.cfi_offset 14, -4
 536              		.loc 1 107 0
 537 0002 0C4D     		ldr	r5, .L30
 538              		.loc 1 106 0
 539 0004 0C4C     		ldr	r4, .L30+4
 540              		.loc 1 107 0
 541 0006 2B78     		ldrb	r3, [r5]	@ zero_extendqisi2
 542              		.loc 1 106 0
 543 0008 2268     		ldr	r2, [r4]
 544 000a 82B0     		sub	sp, sp, #8
 545              		.cfi_def_cfa_offset 24
 546              		.loc 1 106 0
 547 000c 0192     		str	r2, [sp, #4]
 548              		.loc 1 107 0
 549 000e 4BB1     		cbz	r3, .L22
 550              		.loc 1 108 0
 551 0010 0A4E     		ldr	r6, .L30+8
 552 0012 3068     		ldr	r0, [r6]
 553 0014 FFF7FEFF 		bl	chThdTerminate
 554              	.LVL27:
 555              		.loc 1 109 0
 556 0018 3068     		ldr	r0, [r6]
 557 001a FFF7FEFF 		bl	chThdWait
 558              	.LVL28:
 559              		.loc 1 110 0
 560 001e 0023     		movs	r3, #0
 561 0020 3360     		str	r3, [r6]
 562              		.loc 1 111 0
 563 0022 2B70     		strb	r3, [r5]
 564              	.L22:
 565              		.loc 1 113 0
 566 0024 019A     		ldr	r2, [sp, #4]
 567 0026 2368     		ldr	r3, [r4]
 568 0028 9A42     		cmp	r2, r3
 569 002a 01D1     		bne	.L29
 570 002c 02B0     		add	sp, sp, #8
ARM GAS  /tmp/ccl5hICu.s 			page 11


 571              		.cfi_remember_state
 572              		.cfi_def_cfa_offset 16
 573              		@ sp needed
 574 002e 70BD     		pop	{r4, r5, r6, pc}
 575              	.L29:
 576              		.cfi_restore_state
 577 0030 FFF7FEFF 		bl	__stack_chk_fail
 578              	.LVL29:
 579              	.L31:
 580              		.align	2
 581              	.L30:
 582 0034 00000000 		.word	.LANCHOR3
 583 0038 00000000 		.word	__stack_chk_guard
 584 003c 00000000 		.word	.LANCHOR5
 585              		.cfi_endproc
 586              	.LFE262:
 587              		.size	ground_stop, .-ground_stop
 588              		.section	.text.get_ground_prox,"ax",%progbits
 589              		.align	1
 590              		.p2align 4,,15
 591              		.global	get_ground_prox
 592              		.syntax unified
 593              		.thumb
 594              		.thumb_func
 595              		.fpu fpv4-sp-d16
 596              		.type	get_ground_prox, %function
 597              	get_ground_prox:
 598              	.LFB263:
 599              		.loc 1 115 0
 600              		.cfi_startproc
 601              		@ args = 0, pretend = 0, frame = 8
 602              		@ frame_needed = 0, uses_anonymous_args = 0
 603              	.LVL30:
 604 0000 00B5     		push	{lr}
 605              		.cfi_def_cfa_offset 4
 606              		.cfi_offset 14, -4
 607 0002 0A4B     		ldr	r3, .L38
 608 0004 83B0     		sub	sp, sp, #12
 609              		.cfi_def_cfa_offset 16
 610              		.loc 1 115 0
 611 0006 1A68     		ldr	r2, [r3]
 612 0008 0192     		str	r2, [sp, #4]
 613              		.loc 1 116 0
 614 000a 0428     		cmp	r0, #4
 615              		.loc 1 119 0
 616 000c 9CBF     		itt	ls
 617 000e 084A     		ldrls	r2, .L38+4
 618 0010 02EB4000 		addls	r0, r2, r0, lsl #1
 619              	.LVL31:
 620              		.loc 1 121 0
 621 0014 019A     		ldr	r2, [sp, #4]
 622 0016 1B68     		ldr	r3, [r3]
 623              		.loc 1 119 0
 624 0018 94BF     		ite	ls
 625 001a 4089     		ldrhls	r0, [r0, #10]
 626              		.loc 1 117 0
 627 001c 0020     		movhi	r0, #0
ARM GAS  /tmp/ccl5hICu.s 			page 12


 628              		.loc 1 121 0
 629 001e 9A42     		cmp	r2, r3
 630 0020 02D1     		bne	.L37
 631 0022 03B0     		add	sp, sp, #12
 632              		.cfi_remember_state
 633              		.cfi_def_cfa_offset 4
 634              		@ sp needed
 635 0024 5DF804FB 		ldr	pc, [sp], #4
 636              	.L37:
 637              		.cfi_restore_state
 638 0028 FFF7FEFF 		bl	__stack_chk_fail
 639              	.LVL32:
 640              	.L39:
 641              		.align	2
 642              	.L38:
 643 002c 00000000 		.word	__stack_chk_guard
 644 0030 00000000 		.word	.LANCHOR1
 645              		.cfi_endproc
 646              	.LFE263:
 647              		.size	get_ground_prox, .-get_ground_prox
 648              		.section	.text.get_ground_ambient_light,"ax",%progbits
 649              		.align	1
 650              		.p2align 4,,15
 651              		.global	get_ground_ambient_light
 652              		.syntax unified
 653              		.thumb
 654              		.thumb_func
 655              		.fpu fpv4-sp-d16
 656              		.type	get_ground_ambient_light, %function
 657              	get_ground_ambient_light:
 658              	.LFB264:
 659              		.loc 1 123 0
 660              		.cfi_startproc
 661              		@ args = 0, pretend = 0, frame = 8
 662              		@ frame_needed = 0, uses_anonymous_args = 0
 663              	.LVL33:
 664 0000 00B5     		push	{lr}
 665              		.cfi_def_cfa_offset 4
 666              		.cfi_offset 14, -4
 667 0002 0A4B     		ldr	r3, .L46
 668 0004 83B0     		sub	sp, sp, #12
 669              		.cfi_def_cfa_offset 16
 670              		.loc 1 123 0
 671 0006 1A68     		ldr	r2, [r3]
 672 0008 0192     		str	r2, [sp, #4]
 673              		.loc 1 124 0
 674 000a 0428     		cmp	r0, #4
 675              		.loc 1 127 0
 676 000c 9CBF     		itt	ls
 677 000e 084A     		ldrls	r2, .L46+4
 678 0010 32F81000 		ldrhls	r0, [r2, r0, lsl #1]
 679              	.LVL34:
 680              		.loc 1 129 0
 681 0014 019A     		ldr	r2, [sp, #4]
 682 0016 1B68     		ldr	r3, [r3]
 683              		.loc 1 125 0
 684 0018 88BF     		it	hi
ARM GAS  /tmp/ccl5hICu.s 			page 13


 685 001a 0020     		movhi	r0, #0
 686              		.loc 1 129 0
 687 001c 9A42     		cmp	r2, r3
 688 001e 02D1     		bne	.L45
 689 0020 03B0     		add	sp, sp, #12
 690              		.cfi_remember_state
 691              		.cfi_def_cfa_offset 4
 692              		@ sp needed
 693 0022 5DF804FB 		ldr	pc, [sp], #4
 694              	.L45:
 695              		.cfi_restore_state
 696 0026 FFF7FEFF 		bl	__stack_chk_fail
 697              	.LVL35:
 698              	.L47:
 699 002a 00BF     		.align	2
 700              	.L46:
 701 002c 00000000 		.word	__stack_chk_guard
 702 0030 00000000 		.word	.LANCHOR1
 703              		.cfi_endproc
 704              	.LFE264:
 705              		.size	get_ground_ambient_light, .-get_ground_ambient_light
 706              		.section	.bss.groundThd,"aw",%nobits
 707              		.align	2
 708              		.set	.LANCHOR5,. + 0
 709              		.type	groundThd, %object
 710              		.size	groundThd, 4
 711              	groundThd:
 712 0000 00000000 		.space	4
 713              		.section	.bss.ground_configured,"aw",%nobits
 714              		.set	.LANCHOR3,. + 0
 715              		.type	ground_configured, %object
 716              		.size	ground_configured, 1
 717              	ground_configured:
 718 0000 00       		.space	1
 719              		.section	.bss.ground_thd_wa,"aw",%nobits
 720              		.align	3
 721              		.set	.LANCHOR4,. + 0
 722              		.type	ground_thd_wa, %object
 723              		.size	ground_thd_wa, 888
 724              	ground_thd_wa:
 725 0000 00000000 		.space	888
 725      00000000 
 725      00000000 
 725      00000000 
 725      00000000 
 726              		.section	.bss.ground_values,"aw",%nobits
 727              		.align	2
 728              		.set	.LANCHOR1,. + 0
 729              		.type	ground_values, %object
 730              		.size	ground_values, 20
 731              	ground_values:
 732 0000 00000000 		.space	20
 732      00000000 
 732      00000000 
 732      00000000 
 732      00000000 
 733              		.section	.rodata.__FUNCTION__.12112,"a",%progbits
ARM GAS  /tmp/ccl5hICu.s 			page 14


 734              		.align	2
 735              		.set	.LANCHOR0,. + 0
 736              		.type	__FUNCTION__.12112, %object
 737              		.size	__FUNCTION__.12112, 11
 738              	__FUNCTION__.12112:
 739 0000 67726F75 		.ascii	"ground_thd\000"
 739      6E645F74 
 739      686400
 740              		.section	.rodata.__func__.8370,"a",%progbits
 741              		.align	2
 742              		.set	.LANCHOR2,. + 0
 743              		.type	__func__.8370, %object
 744              		.size	__func__.8370, 12
 745              	__func__.8370:
 746 0000 63685379 		.ascii	"chSysUnlock\000"
 746      73556E6C 
 746      6F636B00 
 747              		.section	.rodata.ground_thd.str1.4,"aMS",%progbits,1
 748              		.align	2
 749              	.LC0:
 750 0000 2F67726F 		.ascii	"/ground\000"
 750      756E6400 
 751              		.text
 752              	.Letext0:
 753              		.file 7 "/home/uos/Documents/group_e/Eclipse_e-puck2/Tools/gcc-arm-none-eabi-7-2017-q4-major/arm-n
 754              		.file 8 "/home/uos/Documents/group_e/Eclipse_e-puck2/Tools/gcc-arm-none-eabi-7-2017-q4-major/lib/g
 755              		.file 9 "/home/uos/Documents/group_e/Eclipse_e-puck2/Tools/gcc-arm-none-eabi-7-2017-q4-major/arm-n
 756              		.file 10 "/home/uos/Documents/group_e/Eclipse_e-puck2/Tools/gcc-arm-none-eabi-7-2017-q4-major/arm-
 757              		.file 11 "/home/uos/Documents/group_e/Eclipse_e-puck2/Tools/gcc-arm-none-eabi-7-2017-q4-major/arm-
 758              		.file 12 "/home/uos/Documents/group_e/Eclipse_e-puck2/Tools/gcc-arm-none-eabi-7-2017-q4-major/arm-
 759              		.file 13 "../e-puck2_main-processor/ChibiOS//os/rt/ports/ARMCMx/compilers/GCC/chtypes.h"
 760              		.file 14 "../e-puck2_main-processor/ChibiOS//os/rt/include/chsystypes.h"
 761              		.file 15 "../e-puck2_main-processor/ChibiOS//os/rt/include/chschd.h"
 762              		.file 16 "../e-puck2_main-processor/ChibiOS//os/ext/CMSIS/include/core_cm4.h"
 763              		.file 17 "../e-puck2_main-processor/ChibiOS//os/ext/CMSIS/ST/system_stm32f4xx.h"
 764              		.file 18 "../e-puck2_main-processor/ChibiOS//os/ext/CMSIS/ST/stm32f407xx.h"
 765              		.file 19 "../e-puck2_main-processor/ChibiOS//os/rt/ports/ARMCMx/chcore.h"
 766              		.file 20 "../e-puck2_main-processor/ChibiOS//os/rt/ports/ARMCMx/chcore_v7m.h"
 767              		.file 21 "../e-puck2_main-processor/ChibiOS//os/rt/include/chdebug.h"
 768              		.file 22 "../e-puck2_main-processor/ChibiOS//os/rt/include/chtm.h"
 769              		.file 23 "../e-puck2_main-processor/ChibiOS//os/rt/include/chstats.h"
 770              		.file 24 "../e-puck2_main-processor/ChibiOS//os/rt/include/chsem.h"
 771              		.file 25 "../e-puck2_main-processor/ChibiOS//os/rt/include/chmtx.h"
 772              		.file 26 "../e-puck2_main-processor/ChibiOS//os/rt/include/chcond.h"
 773              		.file 27 "../e-puck2_main-processor/ChibiOS//os/rt/include/chevents.h"
 774              		.file 28 "../e-puck2_main-processor/ChibiOS//os/rt/include/chqueues.h"
 775              		.file 29 "../e-puck2_main-processor/ChibiOS//os/hal/ports/STM32/STM32F4xx/stm32_dma.h"
 776              		.file 30 "../e-puck2_main-processor/ChibiOS//os/hal/include/hal_ioblock.h"
 777              		.file 31 "../e-puck2_main-processor/ChibiOS//os/hal/ports/STM32/LLD/GPIOv2/pal_lld.h"
 778              		.file 32 "../e-puck2_main-processor/ChibiOS//os/hal/include/adc.h"
 779              		.file 33 "../e-puck2_main-processor/ChibiOS//os/hal/ports/STM32/STM32F4xx/adc_lld.h"
 780              		.file 34 "../e-puck2_main-processor/ChibiOS//os/hal/include/can.h"
 781              		.file 35 "../e-puck2_main-processor/ChibiOS//os/hal/ports/STM32/LLD/can_lld.h"
 782              		.file 36 "../e-puck2_main-processor/ChibiOS//os/hal/include/dac.h"
 783              		.file 37 "../e-puck2_main-processor/ChibiOS//os/hal/ports/STM32/LLD/DACv1/dac_lld.h"
 784              		.file 38 "../e-puck2_main-processor/ChibiOS//os/hal/include/ext.h"
 785              		.file 39 "../e-puck2_main-processor/ChibiOS//os/hal/ports/STM32/LLD/ext_lld.h"
ARM GAS  /tmp/ccl5hICu.s 			page 15


 786              		.file 40 "../e-puck2_main-processor/ChibiOS//os/hal/include/gpt.h"
 787              		.file 41 "../e-puck2_main-processor/ChibiOS//os/hal/ports/STM32/LLD/TIMv1/gpt_lld.h"
 788              		.file 42 "../e-puck2_main-processor/ChibiOS//os/hal/ports/STM32/LLD/TIMv1/stm32_tim.h"
 789              		.file 43 "../e-puck2_main-processor/ChibiOS//os/hal/include/i2c.h"
 790              		.file 44 "../e-puck2_main-processor/ChibiOS//os/hal/ports/STM32/LLD/I2Cv1/i2c_lld.h"
 791              		.file 45 "../e-puck2_main-processor/ChibiOS//os/hal/include/i2s.h"
 792              		.file 46 "../e-puck2_main-processor/ChibiOS//os/hal/ports/STM32/LLD/SPIv1/i2s_lld.h"
 793              		.file 47 "../e-puck2_main-processor/ChibiOS//os/hal/include/pwm.h"
 794              		.file 48 "../e-puck2_main-processor/ChibiOS//os/hal/ports/STM32/LLD/TIMv1/pwm_lld.h"
 795              		.file 49 "../e-puck2_main-processor/ChibiOS//os/hal/include/serial.h"
 796              		.file 50 "../e-puck2_main-processor/ChibiOS//os/hal/ports/STM32/LLD/USARTv1/serial_lld.h"
 797              		.file 51 "../e-puck2_main-processor/ChibiOS//os/hal/include/sdc.h"
 798              		.file 52 "../e-puck2_main-processor/ChibiOS//os/hal/ports/STM32/LLD/sdc_lld.h"
 799              		.file 53 "../e-puck2_main-processor/ChibiOS//os/hal/include/spi.h"
 800              		.file 54 "../e-puck2_main-processor/ChibiOS//os/hal/ports/STM32/LLD/SPIv1/spi_lld.h"
 801              		.file 55 "../e-puck2_main-processor/ChibiOS//os/hal/include/usb.h"
 802              		.file 56 "../e-puck2_main-processor/ChibiOS//os/hal/ports/STM32/LLD/OTGv1/usb_lld.h"
 803              		.file 57 "../e-puck2_main-processor/ChibiOS//os/hal/ports/STM32/LLD/OTGv1/stm32_otg.h"
 804              		.file 58 "../e-puck2_main-processor/ChibiOS//os/hal/include/serial_usb.h"
 805              		.file 59 "../e-puck2_main-processor/src/sensors/ground.h"
 806              		.file 60 "/home/uos/Documents/group_e/Eclipse_e-puck2/Tools/gcc-arm-none-eabi-7-2017-q4-major/arm-
 807              		.file 61 "../e-puck2_main-processor/src/msgbus/messagebus.h"
 808              		.file 62 "/home/uos/Documents/group_e/Eclipse_e-puck2/Tools/gcc-arm-none-eabi-7-2017-q4-major/arm-
 809              		.file 63 "../e-puck2_main-processor/src/parameter/parameter.h"
 810              		.file 64 "./main.h"
 811              		.file 65 "../e-puck2_main-processor/src/usbcfg.h"
 812              		.file 66 "../e-puck2_main-processor/src/i2c_bus.h"