ARM GAS  /tmp/ccGN35zD.s 			page 1


   1              		.cpu cortex-m4
   2              		.eabi_attribute 27, 1
   3              		.eabi_attribute 28, 1
   4              		.eabi_attribute 20, 1
   5              		.eabi_attribute 21, 1
   6              		.eabi_attribute 23, 3
   7              		.eabi_attribute 24, 1
   8              		.eabi_attribute 25, 1
   9              		.eabi_attribute 26, 1
  10              		.eabi_attribute 30, 2
  11              		.eabi_attribute 34, 1
  12              		.eabi_attribute 18, 4
  13              		.file	"main.c"
  14              		.text
  15              	.Ltext0:
  16              		.cfi_sections	.debug_frame
  17              		.section	.text.Set_Speed.part.0,"ax",%progbits
  18              		.align	1
  19              		.p2align 4,,15
  20              		.syntax unified
  21              		.thumb
  22              		.thumb_func
  23              		.fpu fpv4-sp-d16
  24              		.type	Set_Speed.part.0, %function
  25              	Set_Speed.part.0:
  26              	.LFB263:
  27              		.file 1 "main.c"
  28              		.loc 1 23 0
  29              		.cfi_startproc
  30              		@ args = 0, pretend = 0, frame = 8
  31              		@ frame_needed = 0, uses_anonymous_args = 0
  32              	.LVL0:
  33 0000 30B5     		push	{r4, r5, lr}
  34              		.cfi_def_cfa_offset 12
  35              		.cfi_offset 4, -12
  36              		.cfi_offset 5, -8
  37              		.cfi_offset 14, -4
  38 0002 094C     		ldr	r4, .L7
  39 0004 83B0     		sub	sp, sp, #12
  40              		.cfi_def_cfa_offset 24
  41              		.loc 1 23 0
  42 0006 2368     		ldr	r3, [r4]
  43 0008 0193     		str	r3, [sp, #4]
  44 000a 0546     		mov	r5, r0
  45              		.loc 1 25 0
  46 000c FFF7FEFF 		bl	left_motor_set_speed
  47              	.LVL1:
  48              		.loc 1 26 0
  49 0010 019A     		ldr	r2, [sp, #4]
  50 0012 2368     		ldr	r3, [r4]
  51 0014 9A42     		cmp	r2, r3
  52 0016 05D1     		bne	.L6
  53 0018 2846     		mov	r0, r5
  54              		.loc 1 28 0
  55 001a 03B0     		add	sp, sp, #12
  56              		.cfi_remember_state
  57              		.cfi_def_cfa_offset 12
ARM GAS  /tmp/ccGN35zD.s 			page 2


  58              		@ sp needed
  59 001c BDE83040 		pop	{r4, r5, lr}
  60              		.cfi_restore 14
  61              		.cfi_restore 5
  62              		.cfi_restore 4
  63              		.cfi_def_cfa_offset 0
  64              	.LVL2:
  65              		.loc 1 26 0
  66 0020 FFF7FEBF 		b	right_motor_set_speed
  67              	.LVL3:
  68              	.L6:
  69              		.cfi_restore_state
  70 0024 FFF7FEFF 		bl	__stack_chk_fail
  71              	.LVL4:
  72              	.L8:
  73              		.align	2
  74              	.L7:
  75 0028 00000000 		.word	__stack_chk_guard
  76              		.cfi_endproc
  77              	.LFE263:
  78              		.size	Set_Speed.part.0, .-Set_Speed.part.0
  79              		.section	.text.Set_Speed,"ax",%progbits
  80              		.align	1
  81              		.p2align 4,,15
  82              		.global	Set_Speed
  83              		.syntax unified
  84              		.thumb
  85              		.thumb_func
  86              		.fpu fpv4-sp-d16
  87              		.type	Set_Speed, %function
  88              	Set_Speed:
  89              	.LFB259:
  90              		.loc 1 23 0
  91              		.cfi_startproc
  92              		@ args = 0, pretend = 0, frame = 8
  93              		@ frame_needed = 0, uses_anonymous_args = 0
  94              	.LVL5:
  95 0000 00B5     		push	{lr}
  96              		.cfi_def_cfa_offset 4
  97              		.cfi_offset 14, -4
  98 0002 0C4B     		ldr	r3, .L16
  99 0004 83B0     		sub	sp, sp, #12
 100              		.cfi_def_cfa_offset 16
 101              		.loc 1 23 0
 102 0006 1968     		ldr	r1, [r3]
 103 0008 0191     		str	r1, [sp, #4]
 104              		.loc 1 24 0
 105 000a 00F57A72 		add	r2, r0, #1000
 106 000e B2F5FA6F 		cmp	r2, #2000
 107 0012 019A     		ldr	r2, [sp, #4]
 108 0014 1B68     		ldr	r3, [r3]
 109 0016 04D9     		bls	.L15
 110              		.loc 1 28 0
 111 0018 9A42     		cmp	r2, r3
 112 001a 09D1     		bne	.L14
 113 001c 03B0     		add	sp, sp, #12
 114              		.cfi_remember_state
ARM GAS  /tmp/ccGN35zD.s 			page 3


 115              		.cfi_def_cfa_offset 4
 116              		@ sp needed
 117 001e 5DF804FB 		ldr	pc, [sp], #4
 118              	.L15:
 119              		.cfi_restore_state
 120 0022 9A42     		cmp	r2, r3
 121 0024 04D1     		bne	.L14
 122 0026 03B0     		add	sp, sp, #12
 123              		.cfi_remember_state
 124              		.cfi_def_cfa_offset 4
 125              		@ sp needed
 126 0028 5DF804EB 		ldr	lr, [sp], #4
 127              		.cfi_restore 14
 128              		.cfi_def_cfa_offset 0
 129 002c FFF7FEBF 		b	Set_Speed.part.0
 130              	.LVL6:
 131              	.L14:
 132              		.cfi_restore_state
 133 0030 FFF7FEFF 		bl	__stack_chk_fail
 134              	.LVL7:
 135              	.L17:
 136              		.align	2
 137              	.L16:
 138 0034 00000000 		.word	__stack_chk_guard
 139              		.cfi_endproc
 140              	.LFE259:
 141              		.size	Set_Speed, .-Set_Speed
 142              		.section	.text.Turn_Puck,"ax",%progbits
 143              		.align	1
 144              		.p2align 4,,15
 145              		.global	Turn_Puck
 146              		.syntax unified
 147              		.thumb
 148              		.thumb_func
 149              		.fpu fpv4-sp-d16
 150              		.type	Turn_Puck, %function
 151              	Turn_Puck:
 152              	.LFB260:
 153              		.loc 1 30 0
 154              		.cfi_startproc
 155              		@ args = 0, pretend = 0, frame = 8
 156              		@ frame_needed = 0, uses_anonymous_args = 0
 157              	.LVL8:
 158 0000 70B5     		push	{r4, r5, r6, lr}
 159              		.cfi_def_cfa_offset 16
 160              		.cfi_offset 4, -16
 161              		.cfi_offset 5, -12
 162              		.cfi_offset 6, -8
 163              		.cfi_offset 14, -4
 164 0002 194C     		ldr	r4, .L30
 165 0004 82B0     		sub	sp, sp, #8
 166              		.cfi_def_cfa_offset 24
 167              		.loc 1 30 0
 168 0006 2368     		ldr	r3, [r4]
 169 0008 0193     		str	r3, [sp, #4]
 170 000a 0D46     		mov	r5, r1
 171 000c 4E42     		negs	r6, r1
ARM GAS  /tmp/ccGN35zD.s 			page 4


 172              		.loc 1 31 0
 173 000e 0728     		cmp	r0, #7
 174 0010 1BD8     		bhi	.L19
 175 0012 DFE800F0 		tbb	[pc, r0]
 176              	.L21:
 177 0016 15       		.byte	(.L20-.L21)/2
 178 0017 15       		.byte	(.L20-.L21)/2
 179 0018 15       		.byte	(.L20-.L21)/2
 180 0019 1A       		.byte	(.L19-.L21)/2
 181 001a 1A       		.byte	(.L19-.L21)/2
 182 001b 04       		.byte	(.L22-.L21)/2
 183 001c 04       		.byte	(.L22-.L21)/2
 184 001d 04       		.byte	(.L22-.L21)/2
 185              		.p2align 1
 186              	.L22:
 187              		.loc 1 45 0
 188 001e 0846     		mov	r0, r1
 189              	.LVL9:
 190 0020 FFF7FEFF 		bl	left_motor_set_speed
 191              	.LVL10:
 192              		.loc 1 46 0
 193 0024 3046     		mov	r0, r6
 194              	.L29:
 195 0026 FFF7FEFF 		bl	right_motor_set_speed
 196              	.LVL11:
 197              		.loc 1 47 0
 198 002a 019A     		ldr	r2, [sp, #4]
 199 002c 2368     		ldr	r3, [r4]
 200 002e 9A42     		cmp	r2, r3
 201 0030 18D1     		bne	.L28
 202 0032 4FF4FA70 		mov	r0, #500
 203              		.loc 1 54 0
 204 0036 02B0     		add	sp, sp, #8
 205              		.cfi_remember_state
 206              		.cfi_def_cfa_offset 16
 207              		@ sp needed
 208 0038 BDE87040 		pop	{r4, r5, r6, lr}
 209              		.cfi_restore 14
 210              		.cfi_restore 6
 211              		.cfi_restore 5
 212              		.cfi_restore 4
 213              		.cfi_def_cfa_offset 0
 214              	.LVL12:
 215              		.loc 1 47 0
 216 003c FFF7FEBF 		b	chThdSleep
 217              	.LVL13:
 218              	.L20:
 219              		.cfi_restore_state
 220              	.LBB18:
 221              	.LBB19:
 222              		.loc 1 36 0
 223 0040 3046     		mov	r0, r6
 224              	.LVL14:
 225 0042 FFF7FEFF 		bl	left_motor_set_speed
 226              	.LVL15:
 227              		.loc 1 37 0
 228 0046 2846     		mov	r0, r5
ARM GAS  /tmp/ccGN35zD.s 			page 5


 229 0048 EDE7     		b	.L29
 230              	.LVL16:
 231              	.L19:
 232              	.LBE19:
 233              	.LBE18:
 234              		.loc 1 50 0
 235 004a 0846     		mov	r0, r1
 236              	.LVL17:
 237 004c FFF7FEFF 		bl	left_motor_set_speed
 238              	.LVL18:
 239              		.loc 1 51 0
 240 0050 019A     		ldr	r2, [sp, #4]
 241 0052 2368     		ldr	r3, [r4]
 242 0054 9A42     		cmp	r2, r3
 243 0056 05D1     		bne	.L28
 244 0058 3046     		mov	r0, r6
 245              		.loc 1 54 0
 246 005a 02B0     		add	sp, sp, #8
 247              		.cfi_remember_state
 248              		.cfi_def_cfa_offset 16
 249              		@ sp needed
 250 005c BDE87040 		pop	{r4, r5, r6, lr}
 251              		.cfi_restore 14
 252              		.cfi_restore 6
 253              		.cfi_restore 5
 254              		.cfi_restore 4
 255              		.cfi_def_cfa_offset 0
 256              	.LVL19:
 257              		.loc 1 51 0
 258 0060 FFF7FEBF 		b	right_motor_set_speed
 259              	.LVL20:
 260              	.L28:
 261              		.cfi_restore_state
 262 0064 FFF7FEFF 		bl	__stack_chk_fail
 263              	.LVL21:
 264              	.L31:
 265              		.align	2
 266              	.L30:
 267 0068 00000000 		.word	__stack_chk_guard
 268              		.cfi_endproc
 269              	.LFE260:
 270              		.size	Turn_Puck, .-Turn_Puck
 271              		.section	.text.startup.main,"ax",%progbits
 272              		.align	1
 273              		.p2align 4,,15
 274              		.global	main
 275              		.syntax unified
 276              		.thumb
 277              		.thumb_func
 278              		.fpu fpv4-sp-d16
 279              		.type	main, %function
 280              	main:
 281              	.LFB261:
 282              		.loc 1 56 0
 283              		.cfi_startproc
 284              		@ args = 0, pretend = 0, frame = 104
 285              		@ frame_needed = 0, uses_anonymous_args = 0
ARM GAS  /tmp/ccGN35zD.s 			page 6


 286 0000 F0B5     		push	{r4, r5, r6, r7, lr}
 287              		.cfi_def_cfa_offset 20
 288              		.cfi_offset 4, -20
 289              		.cfi_offset 5, -16
 290              		.cfi_offset 6, -12
 291              		.cfi_offset 7, -8
 292              		.cfi_offset 14, -4
 293 0002 3E4B     		ldr	r3, .L44
 294              	.LBB20:
 295              		.loc 1 87 0
 296 0004 3E4D     		ldr	r5, .L44+4
 297              	.LBE20:
 298              		.loc 1 56 0
 299 0006 1B68     		ldr	r3, [r3]
 300              	.LBB29:
 301              		.loc 1 107 0
 302 0008 3E4F     		ldr	r7, .L44+8
 303              	.LBE29:
 304              		.loc 1 56 0
 305 000a 9BB0     		sub	sp, sp, #108
 306              		.cfi_def_cfa_offset 128
 307              	.LBB36:
 308              	.LBB37:
 309 000c 0026     		movs	r6, #0
 310              	.LBE37:
 311              	.LBE36:
 312              		.loc 1 56 0
 313 000e 1993     		str	r3, [sp, #100]
 314              		.loc 1 58 0
 315 0010 FFF7FEFF 		bl	halInit
 316              	.LVL22:
 317              		.loc 1 59 0
 318 0014 FFF7FEFF 		bl	chSysInit
 319              	.LVL23:
 320              		.loc 1 60 0
 321 0018 FFF7FEFF 		bl	mpu_init
 322              	.LVL24:
 323              		.loc 1 61 0
 324 001c FFF7FEFF 		bl	motors_init
 325              	.LVL25:
 326              		.loc 1 62 0
 327 0020 394A     		ldr	r2, .L44+12
 328 0022 3A49     		ldr	r1, .L44+16
 329 0024 3A48     		ldr	r0, .L44+20
 330 0026 FFF7FEFF 		bl	messagebus_init
 331              	.LVL26:
 332              		.loc 1 63 0
 333 002a FFF7FEFF 		bl	proximity_start
 334              	.LVL27:
 335              		.loc 1 64 0
 336 002e FFF7FEFF 		bl	calibrate_ir
 337              	.LVL28:
 338              		.loc 1 67 0
 339 0032 FFF7FEFF 		bl	serial_start
 340              	.LVL29:
 341              	.LBB39:
 342              	.LBB38:
ARM GAS  /tmp/ccGN35zD.s 			page 7


 343 0036 4FF4FA70 		mov	r0, #500
 344 003a FFF7FEFF 		bl	Set_Speed.part.0
 345              	.LVL30:
 346              	.L38:
 347              	.LBE38:
 348              	.LBE39:
 349              	.LBB40:
 350              		.loc 1 84 0
 351 003e 0024     		movs	r4, #0
 352 0040 0FE0     		b	.L35
 353              	.LVL31:
 354              	.L43:
 355              	.LBB21:
 356              	.LBB22:
 357 0042 FFF7FEFF 		bl	Set_Speed.part.0
 358              	.LVL32:
 359              	.LBE22:
 360              	.LBE21:
 361              		.loc 1 93 0
 362 0046 4FF4FA70 		mov	r0, #500
 363 004a FFF7FEFF 		bl	chThdSleep
 364              	.LVL33:
 365              		.loc 1 94 0
 366 004e 2046     		mov	r0, r4
 367 0050 4FF4AF71 		mov	r1, #350
 368              		.loc 1 84 0
 369 0054 0134     		adds	r4, r4, #1
 370              	.LVL34:
 371              		.loc 1 94 0
 372 0056 FFF7FEFF 		bl	Turn_Puck
 373              	.LVL35:
 374              		.loc 1 84 0
 375 005a 082C     		cmp	r4, #8
 376              		.loc 1 95 0
 377 005c 4FF00006 		mov	r6, #0
 378              	.LVL36:
 379              		.loc 1 84 0
 380 0060 1AD0     		beq	.L42
 381              	.LVL37:
 382              	.L35:
 383              		.loc 1 87 0
 384 0062 2046     		mov	r0, r4
 385 0064 FFF7FEFF 		bl	get_prox
 386              	.LVL38:
 387 0068 2246     		mov	r2, r4
 388 006a 0346     		mov	r3, r0
 389 006c 2946     		mov	r1, r5
 390 006e 6846     		mov	r0, sp
 391 0070 FFF7FEFF 		bl	sprintf
 392              	.LVL39:
 393              		.loc 1 89 0
 394 0074 0146     		mov	r1, r0
 395 0076 6846     		mov	r0, sp
 396              	.LVL40:
 397 0078 FFF7FEFF 		bl	e_send_uart1_char
 398              	.LVL41:
 399              		.loc 1 91 0
ARM GAS  /tmp/ccGN35zD.s 			page 8


 400 007c 2046     		mov	r0, r4
 401 007e FFF7FEFF 		bl	get_prox
 402              	.LVL42:
 403 0082 6328     		cmp	r0, #99
 404              	.LBB24:
 405              	.LBB23:
 406 0084 4FF00000 		mov	r0, #0
 407              	.LBE23:
 408              	.LBE24:
 409 0088 DBDC     		bgt	.L43
 410              	.LBB25:
 411              	.LBB26:
 412 008a 4FF4FA70 		mov	r0, #500
 413              	.LBE26:
 414              	.LBE25:
 415              		.loc 1 84 0
 416 008e 0134     		adds	r4, r4, #1
 417              	.LVL43:
 418              	.LBB28:
 419              	.LBB27:
 420 0090 FFF7FEFF 		bl	Set_Speed.part.0
 421              	.LVL44:
 422              	.LBE27:
 423              	.LBE28:
 424 0094 082C     		cmp	r4, #8
 425 0096 E4D1     		bne	.L35
 426              	.LVL45:
 427              	.L42:
 428              	.LBE40:
 429              		.loc 1 102 0
 430 0098 032E     		cmp	r6, #3
 431 009a 05DC     		bgt	.L36
 432 009c 0136     		adds	r6, r6, #1
 433              	.L37:
 434              		.loc 1 113 0
 435 009e 4FF4FA70 		mov	r0, #500
 436 00a2 FFF7FEFF 		bl	chThdSleep
 437              	.LVL46:
 438              		.loc 1 84 0
 439 00a6 CAE7     		b	.L38
 440              	.L36:
 441              	.LVL47:
 442              	.LBB41:
 443              	.LBB30:
 444              	.LBB31:
 445 00a8 0020     		movs	r0, #0
 446 00aa FFF7FEFF 		bl	Set_Speed.part.0
 447              	.LVL48:
 448              	.LBE31:
 449              	.LBE30:
 450              		.loc 1 104 0
 451 00ae 4FF4FA70 		mov	r0, #500
 452 00b2 FFF7FEFF 		bl	chThdSleep
 453              	.LVL49:
 454              	.LBB32:
 455              	.LBB33:
 456              		.loc 1 50 0
ARM GAS  /tmp/ccGN35zD.s 			page 9


 457 00b6 4FF4AF70 		mov	r0, #350
 458 00ba FFF7FEFF 		bl	left_motor_set_speed
 459              	.LVL50:
 460              		.loc 1 51 0
 461 00be 1548     		ldr	r0, .L44+24
 462 00c0 FFF7FEFF 		bl	right_motor_set_speed
 463              	.LVL51:
 464              	.LBE33:
 465              	.LBE32:
 466              		.loc 1 106 0
 467 00c4 FFF7FEFF 		bl	rand
 468              	.LVL52:
 469 00c8 134A     		ldr	r2, .L44+28
 470 00ca 1449     		ldr	r1, .L44+32
 471 00cc 82FB0032 		smull	r3, r2, r2, r0
 472 00d0 C317     		asrs	r3, r0, #31
 473 00d2 C3EB6203 		rsb	r3, r3, r2, asr #1
 474 00d6 03EB8303 		add	r3, r3, r3, lsl #2
 475 00da C01A     		subs	r0, r0, r3
 476              	.LVL53:
 477              		.loc 1 107 0
 478 00dc 00FB01F0 		mul	r0, r0, r1
 479 00e0 00F2E730 		addw	r0, r0, #999
 480 00e4 A7FB0030 		umull	r3, r0, r7, r0
 481 00e8 8009     		lsrs	r0, r0, #6
 482 00ea FFF7FEFF 		bl	chThdSleep
 483              	.LVL54:
 484              	.LBB34:
 485              	.LBB35:
 486 00ee 4FF4FA70 		mov	r0, #500
 487 00f2 FFF7FEFF 		bl	Set_Speed.part.0
 488              	.LVL55:
 489 00f6 0126     		movs	r6, #1
 490 00f8 D1E7     		b	.L37
 491              	.L45:
 492 00fa 00BF     		.align	2
 493              	.L44:
 494 00fc 00000000 		.word	__stack_chk_guard
 495 0100 00000000 		.word	.LC0
 496 0104 D34D6210 		.word	274877907
 497 0108 00000000 		.word	.LANCHOR0
 498 010c 00000000 		.word	.LANCHOR1
 499 0110 00000000 		.word	.LANCHOR2
 500 0114 A2FEFFFF 		.word	-350
 501 0118 67666666 		.word	1717986919
 502 011c 40420F00 		.word	1000000
 503              	.LBE35:
 504              	.LBE34:
 505              	.LBE41:
 506              		.cfi_endproc
 507              	.LFE261:
 508              		.size	main, .-main
 509              		.section	.text.__stack_chk_fail,"ax",%progbits
 510              		.align	1
 511              		.p2align 4,,15
 512              		.global	__stack_chk_fail
 513              		.syntax unified
ARM GAS  /tmp/ccGN35zD.s 			page 10


 514              		.thumb
 515              		.thumb_func
 516              		.fpu fpv4-sp-d16
 517              		.type	__stack_chk_fail, %function
 518              	__stack_chk_fail:
 519              	.LFB262:
 520              		.loc 1 121 0
 521              		.cfi_startproc
 522              		@ args = 0, pretend = 0, frame = 8
 523              		@ frame_needed = 0, uses_anonymous_args = 0
 524 0000 00B5     		push	{lr}
 525              		.cfi_def_cfa_offset 4
 526              		.cfi_offset 14, -4
 527 0002 084B     		ldr	r3, .L51
 528 0004 83B0     		sub	sp, sp, #12
 529              		.cfi_def_cfa_offset 16
 530              		.loc 1 121 0
 531 0006 1A68     		ldr	r2, [r3]
 532 0008 0192     		str	r2, [sp, #4]
 533              		.loc 1 122 0
 534 000a 019A     		ldr	r2, [sp, #4]
 535 000c 1B68     		ldr	r3, [r3]
 536 000e 9A42     		cmp	r2, r3
 537 0010 05D1     		bne	.L50
 538 0012 0548     		ldr	r0, .L51+4
 539              		.loc 1 123 0
 540 0014 03B0     		add	sp, sp, #12
 541              		.cfi_remember_state
 542              		.cfi_def_cfa_offset 4
 543              		@ sp needed
 544 0016 5DF804EB 		ldr	lr, [sp], #4
 545              		.cfi_restore 14
 546              		.cfi_def_cfa_offset 0
 547              		.loc 1 122 0
 548 001a FFF7FEBF 		b	chSysHalt
 549              	.LVL56:
 550              	.L50:
 551              		.cfi_restore_state
 552 001e FFF7FEFF 		bl	__stack_chk_fail
 553              	.LVL57:
 554              	.L52:
 555 0022 00BF     		.align	2
 556              	.L51:
 557 0024 00000000 		.word	__stack_chk_guard
 558 0028 00000000 		.word	.LC1
 559              		.cfi_endproc
 560              	.LFE262:
 561              		.size	__stack_chk_fail, .-__stack_chk_fail
 562              		.global	__stack_chk_guard
 563              		.global	bus_condvar
 564              		.global	bus_lock
 565              		.global	bus
 566              		.section	.bss.bus,"aw",%nobits
 567              		.align	2
 568              		.set	.LANCHOR2,. + 0
 569              		.type	bus, %object
 570              		.size	bus, 12
ARM GAS  /tmp/ccGN35zD.s 			page 11


 571              	bus:
 572 0000 00000000 		.space	12
 572      00000000 
 572      00000000 
 573              		.section	.data.__stack_chk_guard,"aw",%progbits
 574              		.align	2
 575              		.type	__stack_chk_guard, %object
 576              		.size	__stack_chk_guard, 4
 577              	__stack_chk_guard:
 578 0000 96E3DEE2 		.word	-488709226
 579              		.section	.data.bus_condvar,"aw",%progbits
 580              		.align	2
 581              		.set	.LANCHOR0,. + 0
 582              		.type	bus_condvar, %object
 583              		.size	bus_condvar, 8
 584              	bus_condvar:
 585 0000 00000000 		.word	bus_condvar
 586 0004 00000000 		.word	bus_condvar
 587              		.section	.data.bus_lock,"aw",%progbits
 588              		.align	2
 589              		.set	.LANCHOR1,. + 0
 590              		.type	bus_lock, %object
 591              		.size	bus_lock, 20
 592              	bus_lock:
 593 0000 00000000 		.word	bus_lock
 594 0004 00000000 		.word	bus_lock
 595 0008 00000000 		.word	0
 596 000c 00000000 		.word	0
 597 0010 00000000 		.word	0
 598              		.section	.rodata.__stack_chk_fail.str1.4,"aMS",%progbits,1
 599              		.align	2
 600              	.LC1:
 601 0000 53746163 		.ascii	"Stack smashing detected\000"
 601      6B20736D 
 601      61736869 
 601      6E672064 
 601      65746563 
 602              		.section	.rodata.main.str1.4,"aMS",%progbits,1
 603              		.align	2
 604              	.LC0:
 605 0000 50726F78 		.ascii	"Prox Sensor %d: %d\012\000"
 605      2053656E 
 605      736F7220 
 605      25643A20 
 605      25640A00 
 606              		.text
 607              	.Letext0:
 608              		.file 2 "/home/uos/Documents/Epuck2_groupe/Eclipse_e-puck2/Tools/gcc-arm-none-eabi-7-2017-q4-major
 609              		.file 3 "/home/uos/Documents/Epuck2_groupe/Eclipse_e-puck2/Tools/gcc-arm-none-eabi-7-2017-q4-major
 610              		.file 4 "/home/uos/Documents/Epuck2_groupe/Eclipse_e-puck2/Tools/gcc-arm-none-eabi-7-2017-q4-major
 611              		.file 5 "/home/uos/Documents/Epuck2_groupe/Eclipse_e-puck2/Tools/gcc-arm-none-eabi-7-2017-q4-major
 612              		.file 6 "/home/uos/Documents/Epuck2_groupe/Eclipse_e-puck2/Tools/gcc-arm-none-eabi-7-2017-q4-major
 613              		.file 7 "/home/uos/Documents/Epuck2_groupe/Eclipse_e-puck2/Tools/gcc-arm-none-eabi-7-2017-q4-major
 614              		.file 8 "/home/uos/Documents/Epuck2_groupe/Eclipse_e-puck2/Tools/gcc-arm-none-eabi-7-2017-q4-major
 615              		.file 9 "/home/uos/Documents/Epuck2_groupe/Eclipse_e-puck2/Tools/gcc-arm-none-eabi-7-2017-q4-major
 616              		.file 10 "../e-puck2_main-processor/ChibiOS//os/rt/ports/ARMCMx/compilers/GCC/chtypes.h"
 617              		.file 11 "../e-puck2_main-processor/ChibiOS//os/rt/include/chsystypes.h"
ARM GAS  /tmp/ccGN35zD.s 			page 12


 618              		.file 12 "../e-puck2_main-processor/ChibiOS//os/rt/include/chschd.h"
 619              		.file 13 "../e-puck2_main-processor/ChibiOS//os/ext/CMSIS/include/core_cm4.h"
 620              		.file 14 "../e-puck2_main-processor/ChibiOS//os/ext/CMSIS/ST/system_stm32f4xx.h"
 621              		.file 15 "../e-puck2_main-processor/ChibiOS//os/ext/CMSIS/ST/stm32f407xx.h"
 622              		.file 16 "../e-puck2_main-processor/ChibiOS//os/rt/ports/ARMCMx/chcore.h"
 623              		.file 17 "../e-puck2_main-processor/ChibiOS//os/rt/ports/ARMCMx/chcore_v7m.h"
 624              		.file 18 "../e-puck2_main-processor/ChibiOS//os/rt/include/chdebug.h"
 625              		.file 19 "../e-puck2_main-processor/ChibiOS//os/rt/include/chtm.h"
 626              		.file 20 "../e-puck2_main-processor/ChibiOS//os/rt/include/chstats.h"
 627              		.file 21 "../e-puck2_main-processor/ChibiOS//os/rt/include/chsem.h"
 628              		.file 22 "../e-puck2_main-processor/ChibiOS//os/rt/include/chmtx.h"
 629              		.file 23 "../e-puck2_main-processor/ChibiOS//os/rt/include/chregistry.h"
 630              		.file 24 "../e-puck2_main-processor/ChibiOS//os/rt/include/chcond.h"
 631              		.file 25 "../e-puck2_main-processor/ChibiOS//os/rt/include/chevents.h"
 632              		.file 26 "../e-puck2_main-processor/ChibiOS//os/rt/include/chqueues.h"
 633              		.file 27 "../e-puck2_main-processor/ChibiOS//os/hal/ports/STM32/STM32F4xx/stm32_dma.h"
 634              		.file 28 "../e-puck2_main-processor/ChibiOS//os/hal/include/hal_ioblock.h"
 635              		.file 29 "../e-puck2_main-processor/ChibiOS//os/hal/ports/STM32/LLD/GPIOv2/pal_lld.h"
 636              		.file 30 "../e-puck2_main-processor/ChibiOS//os/hal/include/adc.h"
 637              		.file 31 "../e-puck2_main-processor/ChibiOS//os/hal/ports/STM32/STM32F4xx/adc_lld.h"
 638              		.file 32 "../e-puck2_main-processor/ChibiOS//os/hal/include/can.h"
 639              		.file 33 "../e-puck2_main-processor/ChibiOS//os/hal/ports/STM32/LLD/can_lld.h"
 640              		.file 34 "../e-puck2_main-processor/ChibiOS//os/hal/include/dac.h"
 641              		.file 35 "../e-puck2_main-processor/ChibiOS//os/hal/ports/STM32/LLD/DACv1/dac_lld.h"
 642              		.file 36 "../e-puck2_main-processor/ChibiOS//os/hal/include/ext.h"
 643              		.file 37 "../e-puck2_main-processor/ChibiOS//os/hal/ports/STM32/LLD/ext_lld.h"
 644              		.file 38 "../e-puck2_main-processor/ChibiOS//os/hal/include/gpt.h"
 645              		.file 39 "../e-puck2_main-processor/ChibiOS//os/hal/ports/STM32/LLD/TIMv1/gpt_lld.h"
 646              		.file 40 "../e-puck2_main-processor/ChibiOS//os/hal/ports/STM32/LLD/TIMv1/stm32_tim.h"
 647              		.file 41 "../e-puck2_main-processor/ChibiOS//os/hal/include/i2c.h"
 648              		.file 42 "../e-puck2_main-processor/ChibiOS//os/hal/ports/STM32/LLD/I2Cv1/i2c_lld.h"
 649              		.file 43 "../e-puck2_main-processor/ChibiOS//os/hal/include/i2s.h"
 650              		.file 44 "../e-puck2_main-processor/ChibiOS//os/hal/ports/STM32/LLD/SPIv1/i2s_lld.h"
 651              		.file 45 "../e-puck2_main-processor/ChibiOS//os/hal/include/pwm.h"
 652              		.file 46 "../e-puck2_main-processor/ChibiOS//os/hal/ports/STM32/LLD/TIMv1/pwm_lld.h"
 653              		.file 47 "../e-puck2_main-processor/ChibiOS//os/hal/include/serial.h"
 654              		.file 48 "../e-puck2_main-processor/ChibiOS//os/hal/ports/STM32/LLD/USARTv1/serial_lld.h"
 655              		.file 49 "../e-puck2_main-processor/ChibiOS//os/hal/include/sdc.h"
 656              		.file 50 "../e-puck2_main-processor/ChibiOS//os/hal/ports/STM32/LLD/sdc_lld.h"
 657              		.file 51 "../e-puck2_main-processor/ChibiOS//os/hal/include/spi.h"
 658              		.file 52 "../e-puck2_main-processor/ChibiOS//os/hal/ports/STM32/LLD/SPIv1/spi_lld.h"
 659              		.file 53 "../e-puck2_main-processor/ChibiOS//os/hal/include/usb.h"
 660              		.file 54 "../e-puck2_main-processor/ChibiOS//os/hal/ports/STM32/LLD/OTGv1/usb_lld.h"
 661              		.file 55 "../e-puck2_main-processor/ChibiOS//os/hal/ports/STM32/LLD/OTGv1/stm32_otg.h"
 662              		.file 56 "/home/uos/Documents/Epuck2_groupe/Eclipse_e-puck2/Tools/gcc-arm-none-eabi-7-2017-q4-majo
 663              		.file 57 "../e-puck2_main-processor/src/msgbus/messagebus.h"
 664              		.file 58 "../e-puck2_main-processor/src/parameter/parameter.h"
 665              		.file 59 "./main.h"
 666              		.file 60 "../e-puck2_main-processor/ChibiOS//os/rt/include/chsys.h"
 667              		.file 61 "../e-puck2_main-processor/ChibiOS//os/rt/include/chthreads.h"
 668              		.file 62 "../e-puck2_main-processor/src/sensors/proximity.h"
 669              		.file 63 "/home/uos/Documents/Epuck2_groupe/Eclipse_e-puck2/Tools/gcc-arm-none-eabi-7-2017-q4-majo
 670              		.file 64 "../e-puck2_main-processor/src/epuck1x/uart/e_uart_char.h"
 671              		.file 65 "../e-puck2_main-processor/src/motors.h"
 672              		.file 66 "../e-puck2_main-processor/ChibiOS//os/hal/include/hal.h"
 673              		.file 67 "../e-puck2_main-processor/src/memory_protection.h"
 674              		.file 68 "../e-puck2_main-processor/src/serial_comm.h"
ARM GAS  /tmp/ccGN35zD.s 			page 13

